MPASM  5.37                            UI.ASM   8-24-2010  6:19:47         PAGE  1


LOC  OBJECT CODE     LINE SOURCE TEXT
  VALUE

                      00001 ;
                      00002 ; This function will exit the Calibration mode if the run/cal
                      00003 ; switch is set to the run mode while we are in the calibration
                      00004 ; mode. The stack pointer is reset and we are vectored to main
                      00005 ;
Error[150]  : Labels must be defined in a code or data section when making an object file
000000                00006 CALexit
                      00007         ; Test mode, if not in Cal mode then return
Warning[207]: Found label after column 1. (MOVLR)
Error[122]  : Illegal opcode (HIGH)
                      00008                 MOVLR   HIGH Mode
Error[113]  : Symbol not previously defined (modeCAL)
Error[152]  : Executable code and data must be defined in an appropriate section
000000                00009                 MOVLW   modeCAL
Error[113]  : Symbol not previously defined (Mode)
Error[152]  : Executable code and data must be defined in an appropriate section
000000                00010                 CPFSEQ  Mode
Error[152]  : Executable code and data must be defined in an appropriate section
000000                00011                 RETURN
                      00012         ; Here if in the CAL mode, so test the switch
Warning[207]: Found label after column 1. (MOVLR)
Error[122]  : Illegal opcode (HIGH)
                      00013                 MOVLR   HIGH PORTEimage
Error[113]  : Symbol not previously defined (RUNCAL)
Error[113]  : Symbol not previously defined (PORTEimage)
Error[152]  : Executable code and data must be defined in an appropriate section
000000                00014                 BTFSS   PORTEimage,RUNCAL
Error[152]  : Executable code and data must be defined in an appropriate section
000000                00015                 RETURN  ; Still in CAL mode
                      00016                 ; Switched to run mode, reset the stack and goto main...
                      00017                 ; No stack reset function provided, so just jump to main
                      00018                 ; after clearing the stack pointer
Error[113]  : Symbol not previously defined (STKPTR)
Error[152]  : Executable code and data must be defined in an appropriate section
000000                00019                 CLRF    STKPTR
Error[113]  : Symbol not previously defined (main)
Error[152]  : Executable code and data must be defined in an appropriate section
Error[152]  : Executable code and data must be defined in an appropriate section
000000                00020                 GOTO    main
                      00021                 
                      00022 ; This function is called from the UI data entry wait loops, if the
                      00023 ; preset button is pressed then this function will save the general
                      00024 ; and aircraft data and return to the "Press Option" cal mode.
Error[150]  : Labels must be defined in a code or data section when making an object file
000000                00025 CalSaveAndExit
Error[151]  : Operand contains unresolvable labels or is too complex
Error[152]  : Executable code and data must be defined in an appropriate section
Error[152]  : Executable code and data must be defined in an appropriate section
000000                00026                 CALL    Preset
Error[113]  : Symbol not previously defined (C)
Error[113]  : Symbol not previously defined (STATUS)
Error[152]  : Executable code and data must be defined in an appropriate section
000000                00027                 BTFSS   STATUS,C
MPASM  5.37                            UI.ASM   8-24-2010  6:19:47         PAGE  2


LOC  OBJECT CODE     LINE SOURCE TEXT
  VALUE

Error[152]  : Executable code and data must be defined in an appropriate section
000000                00028                 RETURN
                      00029         ; Here to save data and exit the menu system
Error[113]  : Symbol not previously defined (STKPTR)
Error[152]  : Executable code and data must be defined in an appropriate section
000000                00030                 CLRF    STKPTR
Error[113]  : Symbol not previously defined (SaveGeneral)
Error[152]  : Executable code and data must be defined in an appropriate section
Error[152]  : Executable code and data must be defined in an appropriate section
000000                00031                 CALL    SaveGeneral
Error[113]  : Symbol not previously defined (Aircraft)
Error[152]  : Executable code and data must be defined in an appropriate section
Error[113]  : Symbol not previously defined (WREG)
Error[152]  : Executable code and data must be defined in an appropriate section
000000                00032                 MOVFF   Aircraft,WREG   ; Load aircraft number
Error[113]  : Symbol not previously defined (SaveAircraft)
Error[152]  : Executable code and data must be defined in an appropriate section
Error[152]  : Executable code and data must be defined in an appropriate section
000000                00033                 CALL    SaveAircraft
Error[113]  : Symbol not previously defined (BackupAircraft)
Error[152]  : Executable code and data must be defined in an appropriate section
Error[152]  : Executable code and data must be defined in an appropriate section
000000                00034                 CALL    BackupAircraft
Error[113]  : Symbol not previously defined (main)
Error[152]  : Executable code and data must be defined in an appropriate section
Error[152]  : Executable code and data must be defined in an appropriate section
000000                00035                 GOTO    main
                      00036 
                      00037 ; This function tests the Preset button and returns its state
                      00038 ; in the carry flag. This fuction is used by the UI to exit 
                      00039 ; data entry. This is a shortcut to return to the "Press Option"
                      00040 ; mode.
                      00041 ;
                      00042 ;       C set if Preset button was pressed
Error[150]  : Labels must be defined in a code or data section when making an object file
000000                00043 Preset
Warning[207]: Found label after column 1. (MOVLR)
Error[122]  : Illegal opcode (HIGH)
000000                00044                 MOVLR   HIGH PORTDimage
Error[113]  : Symbol not previously defined (PRESET)
Error[113]  : Symbol not previously defined (PORTDimage)
Error[152]  : Executable code and data must be defined in an appropriate section
000000                00045                 BTFSC   PORTDimage,PRESET
Error[151]  : Operand contains unresolvable labels or is too complex
Error[152]  : Executable code and data must be defined in an appropriate section
Error[152]  : Executable code and data must be defined in an appropriate section
000000                00046                 GOTO    Preset1
                      00047                 ; Test if its been processed
Error[113]  : Symbol not previously defined (PRESET)
Error[113]  : Symbol not previously defined (PORTDlatch)
Error[152]  : Executable code and data must be defined in an appropriate section
000000                00048                 BTFSS   PORTDlatch,PRESET
Error[151]  : Operand contains unresolvable labels or is too complex
MPASM  5.37                            UI.ASM   8-24-2010  6:19:47         PAGE  3


LOC  OBJECT CODE     LINE SOURCE TEXT
  VALUE

Error[152]  : Executable code and data must be defined in an appropriate section
Error[152]  : Executable code and data must be defined in an appropriate section
000000                00049                 GOTO    Preset1
                      00050                 ; Here if preset was pressed
Error[113]  : Symbol not previously defined (PRESET)
Error[113]  : Symbol not previously defined (PORTDlatch)
Error[152]  : Executable code and data must be defined in an appropriate section
000000                00051                 BCF     PORTDlatch,PRESET
Error[113]  : Symbol not previously defined (C)
Error[113]  : Symbol not previously defined (ALUSTA)
Error[113]  : Symbol not previously defined (A)
Error[152]  : Executable code and data must be defined in an appropriate section
000000                00052                 BSF     ALUSTA,C,A
Error[152]  : Executable code and data must be defined in an appropriate section
000000                00053                 RETURN
Error[150]  : Labels must be defined in a code or data section when making an object file
000000                00054 Preset1
Error[113]  : Symbol not previously defined (C)
Error[113]  : Symbol not previously defined (ALUSTA)
Error[113]  : Symbol not previously defined (A)
Error[152]  : Executable code and data must be defined in an appropriate section
000000                00055                 BCF     ALUSTA,C,A
Error[152]  : Executable code and data must be defined in an appropriate section
000000                00056                 RETURN
                      00057 
                      00058 ; This function is called when in the CAL mode and the option button
                      00059 ; is pressed. This function allows the user to select the calibration
                      00060 ; option he wishes to use. The jump table located at CALoptions is used
                      00061 ; to call the selected routine.
                      00062 ; No parameters are expected when this routine is called.
Error[150]  : Labels must be defined in a code or data section when making an object file
000000                00063 Calibration
                      00064         ; Display the options...
Error[113]  : Symbol not previously defined (AXreg)
Error[152]  : Executable code and data must be defined in an appropriate section
000000                00065                 MOVLB   HIGH AXreg
Error[113]  : Symbol not previously defined (CALMES1)
Error[152]  : Executable code and data must be defined in an appropriate section
000000                00066                 MOVLW   HIGH CALMES1
Error[113]  : Symbol not previously defined (AXreg)
Error[152]  : Executable code and data must be defined in an appropriate section
000000                00067                 MOVWF   AXreg+1
Error[113]  : Symbol not previously defined (CALMES1)
Error[152]  : Executable code and data must be defined in an appropriate section
000000                00068                 MOVLW   LOW CALMES1
Error[113]  : Symbol not previously defined (AXreg)
Error[152]  : Executable code and data must be defined in an appropriate section
000000                00069                 MOVWF   AXreg
Error[151]  : Operand contains unresolvable labels or is too complex
Error[152]  : Executable code and data must be defined in an appropriate section
Error[152]  : Executable code and data must be defined in an appropriate section
000000                00070                 CALL    SelectionFunction
Error[113]  : Symbol not previously defined (LCDsendAX)
MPASM  5.37                            UI.ASM   8-24-2010  6:19:47         PAGE  4


LOC  OBJECT CODE     LINE SOURCE TEXT
  VALUE

Error[152]  : Executable code and data must be defined in an appropriate section
Error[152]  : Executable code and data must be defined in an appropriate section
000000                00071                 CALL    LCDsendAX
                      00072         ; Goto the jump table and process
Error[113]  : Symbol not previously defined (CXreg)
Error[152]  : Executable code and data must be defined in an appropriate section
000000                00073                 MOVLB   HIGH CXreg
Error[113]  : Symbol not previously defined (CXreg)
Error[113]  : Symbol not previously defined (WREG)
Error[152]  : Executable code and data must be defined in an appropriate section
000000                00074                 MOVF    CXreg,WREG
Error[113]  : Symbol not previously defined (CALoptions)
Error[152]  : Executable code and data must be defined in an appropriate section
Error[152]  : Executable code and data must be defined in an appropriate section
000000                00075                 CALL    CALoptions
Error[152]  : Executable code and data must be defined in an appropriate section
000000                00076                 RETURN
                      00077 
                      00078 ; This function is called by the CalUI calibration user interface generic
                      00079 ; processing routine. This function will display the selected calibration
                      00080 ; option on the top line of the display.
                      00081 ; The variable CalOption holds a pointer to the selection option table 
                      00082 ; entry. This entry starts with the string that needs to be displayed.
Error[150]  : Labels must be defined in a code or data section when making an object file
000000                00083 DisplayCalibration
Warning[207]: Found label after column 1. (MOVE16)
Error[122]  : Illegal opcode (CalOption)
000000                00084                 MOVE16  CalOption,AXreg
Warning[207]: Found label after column 1. (CALLF)
Error[122]  : Illegal opcode (LCDsendAX)
000000                00085                 CALLF   LCDsendAX
Error[152]  : Executable code and data must be defined in an appropriate section
000000                00086                 RETURN
                      00087                 
                      00088 ; This function is called by the adjust routines in the UI
                      00089 ; that need to allow the pilot to see the servo positions 
                      00090 ; update. For example, this is used by adjust percentage 
                      00091 ; for the sub trim functions.
                      00092 ; The flag CalServoUpdate must be set or this function will
                      00093 ; exit with no action.
Error[150]  : Labels must be defined in a code or data section when making an object file
000000                00094 CalModeProcess
Error[113]  : Symbol not previously defined (CalServoUpdate)
Error[152]  : Executable code and data must be defined in an appropriate section
000000                00095                 MOVLB   HIGH CalServoUpdate
Error[113]  : Symbol not previously defined (CalServoUpdate)
Error[152]  : Executable code and data must be defined in an appropriate section
000000                00096                 MOVF    CalServoUpdate,W
Error[113]  : Symbol not previously defined (Z)
Error[113]  : Symbol not previously defined (STATUS)
Error[152]  : Executable code and data must be defined in an appropriate section
000000                00097                 BTFSC   STATUS,Z
Error[152]  : Executable code and data must be defined in an appropriate section
MPASM  5.37                            UI.ASM   8-24-2010  6:19:47         PAGE  5


LOC  OBJECT CODE     LINE SOURCE TEXT
  VALUE

000000                00098                 RETURN
                      00099         ; Save FSR1 regs
Error[113]  : Symbol not previously defined (FSR1L)
Error[152]  : Executable code and data must be defined in an appropriate section
Error[113]  : Symbol not previously defined (SaveFSR1L)
Error[152]  : Executable code and data must be defined in an appropriate section
000000                00100                 MOVFF   FSR1L, SaveFSR1L
Error[113]  : Symbol not previously defined (FSR1H)
Error[152]  : Executable code and data must be defined in an appropriate section
Error[113]  : Symbol not previously defined (SaveFSR1H)
Error[152]  : Executable code and data must be defined in an appropriate section
000000                00101                 MOVFF   FSR1H, SaveFSR1H
                      00102                 
Error[113]  : Symbol not previously defined (CalculateNormalizedPositions)
Error[152]  : Executable code and data must be defined in an appropriate section
Error[152]  : Executable code and data must be defined in an appropriate section
000000                00103                 CALL    CalculateNormalizedPositions
Warning[207]: Found label after column 1. (MOVEC)
Error[108]  : Illegal character (0)
000000                00104                 MOVEC   0,Apos                          ; Zero the aileron and elevator
Warning[207]: Found label after column 1. (MOVEC)
Error[108]  : Illegal character (0)
000000                00105                 MOVEC   0,Epos
Error[113]  : Symbol not previously defined (ApplyDualRates)
Error[152]  : Executable code and data must be defined in an appropriate section
Error[152]  : Executable code and data must be defined in an appropriate section
000000                00106                 CALL    ApplyDualRates
Error[113]  : Symbol not previously defined (ApplyExpo)
Error[152]  : Executable code and data must be defined in an appropriate section
Error[152]  : Executable code and data must be defined in an appropriate section
000000                00107                 CALL    ApplyExpo
Error[113]  : Symbol not previously defined (ApplySnap)
Error[152]  : Executable code and data must be defined in an appropriate section
Error[152]  : Executable code and data must be defined in an appropriate section
000000                00108                 CALL    ApplySnap
Error[113]  : Symbol not previously defined (AutoTrim)
Error[152]  : Executable code and data must be defined in an appropriate section
Error[152]  : Executable code and data must be defined in an appropriate section
000000                00109                 CALL    AutoTrim
Error[113]  : Symbol not previously defined (ApplyTrims)
Error[152]  : Executable code and data must be defined in an appropriate section
Error[152]  : Executable code and data must be defined in an appropriate section
000000                00110                 CALL    ApplyTrims
Error[113]  : Symbol not previously defined (ApplyFixedMixersPrior)
Error[152]  : Executable code and data must be defined in an appropriate section
Error[152]  : Executable code and data must be defined in an appropriate section
000000                00111                 CALL    ApplyFixedMixersPrior
Error[113]  : Symbol not previously defined (ApplyMixers)
Error[152]  : Executable code and data must be defined in an appropriate section
Error[152]  : Executable code and data must be defined in an appropriate section
000000                00112                 CALL    ApplyMixers
Error[113]  : Symbol not previously defined (ApplyFixedMixers)
Error[152]  : Executable code and data must be defined in an appropriate section
MPASM  5.37                            UI.ASM   8-24-2010  6:19:47         PAGE  6


LOC  OBJECT CODE     LINE SOURCE TEXT
  VALUE

Error[152]  : Executable code and data must be defined in an appropriate section
000000                00113                 CALL    ApplyFixedMixers
Error[113]  : Symbol not previously defined (ApplySubTrims)
Error[152]  : Executable code and data must be defined in an appropriate section
Error[152]  : Executable code and data must be defined in an appropriate section
000000                00114                 CALL    ApplySubTrims
Error[113]  : Symbol not previously defined (CalculateServoPositions)
Error[152]  : Executable code and data must be defined in an appropriate section
Error[152]  : Executable code and data must be defined in an appropriate section
000000                00115                 CALL    CalculateServoPositions
                      00116 
Error[113]  : Symbol not previously defined (ProcessCommand)
Error[152]  : Executable code and data must be defined in an appropriate section
Error[152]  : Executable code and data must be defined in an appropriate section
000000                00117                 CALL    ProcessCommand
                      00118         ; Restore FSR1 regs
Error[113]  : Symbol not previously defined (SaveFSR1L)
Error[152]  : Executable code and data must be defined in an appropriate section
Error[113]  : Symbol not previously defined (FSR1L)
Error[152]  : Executable code and data must be defined in an appropriate section
000000                00119                 MOVFF   SaveFSR1L, FSR1L
Error[113]  : Symbol not previously defined (SaveFSR1H)
Error[152]  : Executable code and data must be defined in an appropriate section
Error[113]  : Symbol not previously defined (FSR1H)
Error[152]  : Executable code and data must be defined in an appropriate section
000000                00120                 MOVFF   SaveFSR1H, FSR1H
                      00121         
Error[152]  : Executable code and data must be defined in an appropriate section
000000                00122                 RETURN
                      00123 
                      00124 ; This function is called to set the CalServoUpdate flag. This is a 
                      00125 ; function that is called by the user interface code using the pre call
                      00126 ; table functions.
Error[150]  : Labels must be defined in a code or data section when making an object file
000000                00127 SetSUflag
Error[113]  : Symbol not previously defined (CalServoUpdate)
Error[152]  : Executable code and data must be defined in an appropriate section
000000                00128                 MOVLB   HIGH CalServoUpdate
Error[113]  : Symbol not previously defined (CalServoUpdate)
Error[152]  : Executable code and data must be defined in an appropriate section
000000                00129                 SETF    CalServoUpdate
Error[152]  : Executable code and data must be defined in an appropriate section
000000                00130                 RETURN
                      00131 
                      00132 ; AXreg points to the start of the message table. This 
                      00133 ; function fills CXreg with the word at the end of the 
                      00134 ; message block. BXreg is then filled with the second
                      00135 ; optional word. DXreg is filled with the third optional
                      00136 ; word. AXreg points at the current message on exit.         
                      00137 ;
                      00138 ; On call:
                      00139 ;       AXreg points to start of message table
                      00140 ; On Exit:
MPASM  5.37                            UI.ASM   8-24-2010  6:19:47         PAGE  7


LOC  OBJECT CODE     LINE SOURCE TEXT
  VALUE

                      00141 ;       AXreg = points to the current selection
                      00142 ;       CXreg = Opt:Type
                      00143 ;       Bxreg = ptr1, first optional word
                      00144 ;       DXreg = ptr2, second optional word
                      00145 ; If the opt bit 6 is set then the min and max parameters
                      00146 ; are read and the limit reg are set. MinValue and MaxValue.
                      00147 ;
Error[150]  : Labels must be defined in a code or data section when making an object file
000000                00148 SelectionFunction
Error[151]  : Operand contains unresolvable labels or is too complex
Error[152]  : Executable code and data must be defined in an appropriate section
Error[152]  : Executable code and data must be defined in an appropriate section
000000                00149                 CALL    CALexit
                      00150         ; Clear the EXIT flag
Warning[207]: Found label after column 1. (MOVLR)
Error[122]  : Illegal opcode (HIGH)
                      00151                 MOVLR   HIGH EXIT
Error[113]  : Symbol not previously defined (EXIT)
Error[152]  : Executable code and data must be defined in an appropriate section
000000                00152                 CLRF    EXIT 
Error[113]  : Symbol not previously defined (YESNO)
Error[152]  : Executable code and data must be defined in an appropriate section
000000                00153                 CLRF    YESNO  
Error[113]  : Symbol not previously defined (PostCall)
Error[152]  : Executable code and data must be defined in an appropriate section
000000                00154                 CLRF    PostCall
Error[113]  : Symbol not previously defined (PostCall)
Error[152]  : Executable code and data must be defined in an appropriate section
000000                00155                 CLRF    PostCall+1
                      00156         ; Display the message
Error[150]  : Labels must be defined in a code or data section when making an object file
000000                00157 SelFun4 
Warning[207]: Found label after column 1. (CALLFL)
Error[122]  : Illegal opcode (LCDsendCMD)
000000                00158                 CALLFL  LCDsendCMD,LINE2
Error[113]  : Symbol not previously defined (AXreg)
Error[152]  : Executable code and data must be defined in an appropriate section
Error[113]  : Symbol not previously defined (TBLPTRL)
Error[152]  : Executable code and data must be defined in an appropriate section
000000                00159                 MOVFF   AXreg,TBLPTRL
Error[113]  : Symbol not previously defined (AXreg)
Error[152]  : Executable code and data must be defined in an appropriate section
Error[113]  : Symbol not previously defined (TBLPTRH)
Error[152]  : Executable code and data must be defined in an appropriate section
000000                00160                 MOVFF   AXreg+1,TBLPTRH
Error[113]  : Symbol not previously defined (TBLPTRU)
Error[152]  : Executable code and data must be defined in an appropriate section
000000                00161                 CLRF    TBLPTRU
Warning[207]: Found label after column 1. (MOVE16)
Error[122]  : Illegal opcode (AXreg)
000000                00162                 MOVE16  AXreg,BXreg             ; Save pointer to current message
Error[113]  : Symbol not previously defined (LCDsendMess)
Error[152]  : Executable code and data must be defined in an appropriate section
MPASM  5.37                            UI.ASM   8-24-2010  6:19:47         PAGE  8


LOC  OBJECT CODE     LINE SOURCE TEXT
  VALUE

Error[152]  : Executable code and data must be defined in an appropriate section
000000                00163                 CALL    LCDsendMess
Warning[207]: Found label after column 1. (CALLFL)
Error[122]  : Illegal opcode (Delay1mS)
000000                00164                 CALLFL  Delay1mS,D'250'
                      00165         ; Get the users selection
Error[151]  : Operand contains unresolvable labels or is too complex
Error[152]  : Executable code and data must be defined in an appropriate section
Error[152]  : Executable code and data must be defined in an appropriate section
000000                00166                 CALL    Aileron
Error[113]  : Symbol not previously defined (Z)
Error[113]  : Symbol not previously defined (ALUSTA)
Error[152]  : Executable code and data must be defined in an appropriate section
000000                00167                 BTFSS   ALUSTA,Z
Error[151]  : Operand contains unresolvable labels or is too complex
Error[152]  : Executable code and data must be defined in an appropriate section
Error[152]  : Executable code and data must be defined in an appropriate section
000000                00168                 GOTO    SelFun1
                      00169                 ; If here go to next selection
Error[152]  : Executable code and data must be defined in an appropriate section
000000                00170                 MOVLW   D'17'
Error[113]  : Symbol not previously defined (AXreg)
Error[152]  : Executable code and data must be defined in an appropriate section
000000                00171                 ADDWF   AXreg,F
Error[113]  : Symbol not previously defined (C)
Error[113]  : Symbol not previously defined (ALUSTA)
Error[152]  : Executable code and data must be defined in an appropriate section
000000                00172                 BTFSC   ALUSTA,C
Error[113]  : Symbol not previously defined (AXreg)
Error[152]  : Executable code and data must be defined in an appropriate section
000000                00173                 INCF    AXreg+1,F
Error[151]  : Operand contains unresolvable labels or is too complex
Error[152]  : Executable code and data must be defined in an appropriate section
Error[152]  : Executable code and data must be defined in an appropriate section
000000                00174                 GOTO    SelFun2
Error[150]  : Labels must be defined in a code or data section when making an object file
000000                00175 SelFun1
Error[113]  : Symbol not previously defined (C)
Error[113]  : Symbol not previously defined (ALUSTA)
Error[152]  : Executable code and data must be defined in an appropriate section
000000                00176                 BTFSS   ALUSTA,C
Error[151]  : Operand contains unresolvable labels or is too complex
Error[152]  : Executable code and data must be defined in an appropriate section
Error[152]  : Executable code and data must be defined in an appropriate section
000000                00177                 GOTO    SelFun3
                      00178                 ; If here go to last selection
Error[152]  : Executable code and data must be defined in an appropriate section
000000                00179                 MOVLW   D'19'
Error[113]  : Symbol not previously defined (AXreg)
Error[152]  : Executable code and data must be defined in an appropriate section
000000                00180                 ADDWF   AXreg
Error[113]  : Symbol not previously defined (C)
Error[113]  : Symbol not previously defined (ALUSTA)
MPASM  5.37                            UI.ASM   8-24-2010  6:19:47         PAGE  9


LOC  OBJECT CODE     LINE SOURCE TEXT
  VALUE

Error[152]  : Executable code and data must be defined in an appropriate section
000000                00181                 BTFSC   ALUSTA,C
Error[113]  : Symbol not previously defined (AXreg)
Error[152]  : Executable code and data must be defined in an appropriate section
000000                00182                 INCF    AXreg+1
Error[150]  : Labels must be defined in a code or data section when making an object file
000000                00183 SelFun2
                      00184                 ; Load AXreg into the table pointer
Error[113]  : Symbol not previously defined (AXreg)
Error[152]  : Executable code and data must be defined in an appropriate section
Error[113]  : Symbol not previously defined (TBLPTRL)
Error[152]  : Executable code and data must be defined in an appropriate section
000000                00185                 MOVFF   AXreg,TBLPTRL
Error[113]  : Symbol not previously defined (AXreg)
Error[152]  : Executable code and data must be defined in an appropriate section
Error[113]  : Symbol not previously defined (TBLPTRH)
Error[152]  : Executable code and data must be defined in an appropriate section
000000                00186                 MOVFF   AXreg+1,TBLPTRH
Error[113]  : Symbol not previously defined (TBLPTRU)
Error[152]  : Executable code and data must be defined in an appropriate section
000000                00187                 CLRF    TBLPTRU
                      00188                 ; Load AXreg with the table pointer contents...
Error[152]  : Executable code and data must be defined in an appropriate section
000000                00189                 TBLRD*+
Error[113]  : Symbol not previously defined (TABLAT)
Error[152]  : Executable code and data must be defined in an appropriate section
Error[113]  : Symbol not previously defined (AXreg)
Error[152]  : Executable code and data must be defined in an appropriate section
000000                00190                 MOVFF   TABLAT,AXreg
Error[152]  : Executable code and data must be defined in an appropriate section
000000                00191                 TBLRD*+
Error[113]  : Symbol not previously defined (TABLAT)
Error[152]  : Executable code and data must be defined in an appropriate section
Error[113]  : Symbol not previously defined (AXreg)
Error[152]  : Executable code and data must be defined in an appropriate section
000000                00192                 MOVFF   TABLAT,AXreg+1
Error[151]  : Operand contains unresolvable labels or is too complex
Error[152]  : Executable code and data must be defined in an appropriate section
Error[152]  : Executable code and data must be defined in an appropriate section
000000                00193                 GOTO    SelFun4
                      00194         ; Check for Option button
Error[150]  : Labels must be defined in a code or data section when making an object file
000000                00195 SelFun3
Error[151]  : Operand contains unresolvable labels or is too complex
Error[152]  : Executable code and data must be defined in an appropriate section
Error[152]  : Executable code and data must be defined in an appropriate section
000000                00196                 CALL    CalSaveAndExit
Error[113]  : Symbol not previously defined (Option)
Error[152]  : Executable code and data must be defined in an appropriate section
Error[152]  : Executable code and data must be defined in an appropriate section
000000                00197                 CALL    Option
Error[113]  : Symbol not previously defined (C)
Error[113]  : Symbol not previously defined (ALUSTA)
MPASM  5.37                            UI.ASM   8-24-2010  6:19:47         PAGE 10


LOC  OBJECT CODE     LINE SOURCE TEXT
  VALUE

Error[152]  : Executable code and data must be defined in an appropriate section
000000                00198                 BTFSS   ALUSTA,C
Error[151]  : Operand contains unresolvable labels or is too complex
Error[152]  : Executable code and data must be defined in an appropriate section
Error[152]  : Executable code and data must be defined in an appropriate section
000000                00199                 GOTO    SelFun4
                      00200         ; The option button  has been pressed. Advance the table
                      00201         ; pointer to the parameters at the end of the record. Load
                      00202         ; the word into CXreg...
Error[152]  : Executable code and data must be defined in an appropriate section
000000                00203                 MOVLW   D'21'
Error[113]  : Symbol not previously defined (AXreg)
Error[152]  : Executable code and data must be defined in an appropriate section
000000                00204                 ADDWF   AXreg
Error[113]  : Symbol not previously defined (C)
Error[113]  : Symbol not previously defined (ALUSTA)
Error[152]  : Executable code and data must be defined in an appropriate section
000000                00205                 BTFSC   ALUSTA,C
Error[113]  : Symbol not previously defined (AXreg)
Error[152]  : Executable code and data must be defined in an appropriate section
000000                00206                 INCF    AXreg+1
                      00207                 ; Load AXreg into the table pointer
Error[113]  : Symbol not previously defined (AXreg)
Error[152]  : Executable code and data must be defined in an appropriate section
Error[113]  : Symbol not previously defined (TBLPTRL)
Error[152]  : Executable code and data must be defined in an appropriate section
000000                00208                 MOVFF   AXreg,TBLPTRL
Error[113]  : Symbol not previously defined (AXreg)
Error[152]  : Executable code and data must be defined in an appropriate section
Error[113]  : Symbol not previously defined (TBLPTRH)
Error[152]  : Executable code and data must be defined in an appropriate section
000000                00209                 MOVFF   AXreg+1,TBLPTRH
Error[113]  : Symbol not previously defined (TBLPTRU)
Error[113]  : Symbol not previously defined (A)
Error[152]  : Executable code and data must be defined in an appropriate section
000000                00210                 CLRF    TBLPTRU,A
                      00211                 ; Load CXreg with the table pointer contents...
Error[152]  : Executable code and data must be defined in an appropriate section
000000                00212                 TBLRD*+
Error[113]  : Symbol not previously defined (TABLAT)
Error[152]  : Executable code and data must be defined in an appropriate section
Error[113]  : Symbol not previously defined (CXreg)
Error[152]  : Executable code and data must be defined in an appropriate section
000000                00213                 MOVFF   TABLAT,CXreg
Error[152]  : Executable code and data must be defined in an appropriate section
000000                00214                 TBLRD*+
Error[113]  : Symbol not previously defined (TABLAT)
Error[152]  : Executable code and data must be defined in an appropriate section
Error[113]  : Symbol not previously defined (CXreg)
Error[152]  : Executable code and data must be defined in an appropriate section
000000                00215                 MOVFF   TABLAT,CXreg+1
                      00216         ; Restore AXreg to point at current message
Warning[207]: Found label after column 1. (MOVE16)
MPASM  5.37                            UI.ASM   8-24-2010  6:19:47         PAGE 11


LOC  OBJECT CODE     LINE SOURCE TEXT
  VALUE

Error[122]  : Illegal opcode (BXreg)
                      00217                 MOVE16  BXreg,AXreg
                      00218         ; Load the option second word into BXreg
Error[152]  : Executable code and data must be defined in an appropriate section
000000                00219                 TBLRD*+
Error[113]  : Symbol not previously defined (TABLAT)
Error[152]  : Executable code and data must be defined in an appropriate section
Error[113]  : Symbol not previously defined (BXreg)
Error[152]  : Executable code and data must be defined in an appropriate section
000000                00220                 MOVFF   TABLAT,BXreg
Error[152]  : Executable code and data must be defined in an appropriate section
000000                00221                 TBLRD*+
Error[113]  : Symbol not previously defined (TABLAT)
Error[152]  : Executable code and data must be defined in an appropriate section
Error[113]  : Symbol not previously defined (BXreg)
Error[152]  : Executable code and data must be defined in an appropriate section
000000                00222                 MOVFF   TABLAT,BXreg+1
                      00223         ; Load the option third word into DXreg
Error[152]  : Executable code and data must be defined in an appropriate section
000000                00224                 TBLRD*+
Error[113]  : Symbol not previously defined (TABLAT)
Error[152]  : Executable code and data must be defined in an appropriate section
Error[113]  : Symbol not previously defined (DXreg)
Error[152]  : Executable code and data must be defined in an appropriate section
000000                00225                 MOVFF   TABLAT,DXreg
Error[152]  : Executable code and data must be defined in an appropriate section
000000                00226                 TBLRD*+
Error[113]  : Symbol not previously defined (TABLAT)
Error[152]  : Executable code and data must be defined in an appropriate section
Error[113]  : Symbol not previously defined (DXreg)
Error[152]  : Executable code and data must be defined in an appropriate section
000000                00227                 MOVFF   TABLAT,DXreg+1
                      00228         ; If Opt bit 6 is set then load min and max value, opt is in CXreg+1
                      00229                 ; Set default limits
Error[113]  : Symbol not previously defined (MinValue)
Error[152]  : Executable code and data must be defined in an appropriate section
000000                00230                 MOVLB   HIGH MinValue
Error[113]  : Symbol not previously defined (MinValue)
Error[152]  : Executable code and data must be defined in an appropriate section
000000                00231                 CLRF    MinValue
Error[113]  : Symbol not previously defined (MinValue)
Error[152]  : Executable code and data must be defined in an appropriate section
000000                00232                 CLRF    MinValue+1
Error[113]  : Symbol not previously defined (MaxValue)
Error[152]  : Executable code and data must be defined in an appropriate section
000000                00233                 SETF    MaxValue
Error[152]  : Executable code and data must be defined in an appropriate section
000000                00234                 MOVLW   07F
Error[113]  : Symbol not previously defined (WREG)
Error[152]  : Executable code and data must be defined in an appropriate section
Error[113]  : Symbol not previously defined (MaxValue)
Error[152]  : Executable code and data must be defined in an appropriate section
000000                00235                 MOVFF   WREG,MaxValue+1
MPASM  5.37                            UI.ASM   8-24-2010  6:19:47         PAGE 12


LOC  OBJECT CODE     LINE SOURCE TEXT
  VALUE

                      00236                 ;
Error[113]  : Symbol not previously defined (CXreg)
Error[152]  : Executable code and data must be defined in an appropriate section
000000                00237                 BTFSS   CXreg+1,6
Error[151]  : Operand contains unresolvable labels or is too complex
Error[152]  : Executable code and data must be defined in an appropriate section
Error[152]  : Executable code and data must be defined in an appropriate section
000000                00238                 GOTO    SelFun4a
                      00239                 ; Load MinValue
Error[152]  : Executable code and data must be defined in an appropriate section
000000                00240                 TBLRD*+
Error[113]  : Symbol not previously defined (TABLAT)
Error[152]  : Executable code and data must be defined in an appropriate section
Error[113]  : Symbol not previously defined (MinValue)
Error[152]  : Executable code and data must be defined in an appropriate section
000000                00241                 MOVFF   TABLAT,MinValue
Error[152]  : Executable code and data must be defined in an appropriate section
000000                00242                 TBLRD*+
Error[113]  : Symbol not previously defined (TABLAT)
Error[152]  : Executable code and data must be defined in an appropriate section
Error[113]  : Symbol not previously defined (MinValue)
Error[152]  : Executable code and data must be defined in an appropriate section
000000                00243                 MOVFF   TABLAT,MinValue+1
                      00244                 ; Load MaxValue
Error[152]  : Executable code and data must be defined in an appropriate section
000000                00245                 TBLRD*+
Error[113]  : Symbol not previously defined (TABLAT)
Error[152]  : Executable code and data must be defined in an appropriate section
Error[113]  : Symbol not previously defined (MaxValue)
Error[152]  : Executable code and data must be defined in an appropriate section
000000                00246                 MOVFF   TABLAT,MaxValue
Error[152]  : Executable code and data must be defined in an appropriate section
000000                00247                 TBLRD*+
Error[113]  : Symbol not previously defined (TABLAT)
Error[152]  : Executable code and data must be defined in an appropriate section
Error[113]  : Symbol not previously defined (MaxValue)
Error[152]  : Executable code and data must be defined in an appropriate section
000000                00248                 MOVFF   TABLAT,MaxValue+1 
Error[150]  : Labels must be defined in a code or data section when making an object file
000000                00249 SelFun4a
                      00250         ; If Opt bit 2 is set then load the Post call variable
Error[113]  : Symbol not previously defined (CXreg)
Error[152]  : Executable code and data must be defined in an appropriate section
000000                00251                 BTFSS   CXreg+1,2
Error[151]  : Operand contains unresolvable labels or is too complex
Error[152]  : Executable code and data must be defined in an appropriate section
Error[152]  : Executable code and data must be defined in an appropriate section
000000                00252                 GOTO    SelFun5
                      00253                 ; Load PostCall vector
Error[152]  : Executable code and data must be defined in an appropriate section
000000                00254                 TBLRD*+
Error[113]  : Symbol not previously defined (TABLAT)
Error[152]  : Executable code and data must be defined in an appropriate section
MPASM  5.37                            UI.ASM   8-24-2010  6:19:47         PAGE 13


LOC  OBJECT CODE     LINE SOURCE TEXT
  VALUE

Error[113]  : Symbol not previously defined (PostCall)
Error[152]  : Executable code and data must be defined in an appropriate section
000000                00255                 MOVFF   TABLAT,PostCall
Error[152]  : Executable code and data must be defined in an appropriate section
000000                00256                 TBLRD*+
Error[113]  : Symbol not previously defined (TABLAT)
Error[152]  : Executable code and data must be defined in an appropriate section
Error[113]  : Symbol not previously defined (PostCall)
Error[152]  : Executable code and data must be defined in an appropriate section
000000                00257                 MOVFF   TABLAT,PostCall+1
Error[150]  : Labels must be defined in a code or data section when making an object file
000000                00258 SelFun5
                      00259         ; If Opt bit 1 is set then load the Pre call variable
Error[113]  : Symbol not previously defined (CXreg)
Error[152]  : Executable code and data must be defined in an appropriate section
000000                00260                 BTFSS   CXreg+1,1
Error[151]  : Operand contains unresolvable labels or is too complex
Error[152]  : Executable code and data must be defined in an appropriate section
Error[152]  : Executable code and data must be defined in an appropriate section
000000                00261                 GOTO    SelFun5a
                      00262                 ; Load PreCall vector
Error[152]  : Executable code and data must be defined in an appropriate section
000000                00263                 TBLRD*+   
Error[113]  : Symbol not previously defined (TABLAT)
Error[152]  : Executable code and data must be defined in an appropriate section
Error[113]  : Symbol not previously defined (PreCall)
Error[152]  : Executable code and data must be defined in an appropriate section
000000                00264                 MOVFF   TABLAT,PreCall
Error[152]  : Executable code and data must be defined in an appropriate section
000000                00265                 TBLRD*+
Error[113]  : Symbol not previously defined (TABLAT)
Error[152]  : Executable code and data must be defined in an appropriate section
Error[113]  : Symbol not previously defined (PreCall)
Error[152]  : Executable code and data must be defined in an appropriate section
000000                00266                 MOVFF   TABLAT,PreCall+1
Error[150]  : Labels must be defined in a code or data section when making an object file
000000                00267 SelFun5a
                      00268         ; If Opt bit 7 is set then load AXreg message to line 1 of display
Error[113]  : Symbol not previously defined (CXreg)
Error[152]  : Executable code and data must be defined in an appropriate section
000000                00269                 BTFSS   CXreg+1,7
Error[151]  : Operand contains unresolvable labels or is too complex
Error[152]  : Executable code and data must be defined in an appropriate section
Error[152]  : Executable code and data must be defined in an appropriate section
000000                00270                 GOTO    SelFun6  
Warning[207]: Found label after column 1. (CALLF)
Error[122]  : Illegal opcode (LCDsendAX)
000000                00271                 CALLF   LCDsendAX   
                      00272         ; If Opt bit 3 it set then load DXreg message to line 2 of display
Error[150]  : Labels must be defined in a code or data section when making an object file
000000                00273 SelFun6
Error[113]  : Symbol not previously defined (CXreg)
Error[152]  : Executable code and data must be defined in an appropriate section
MPASM  5.37                            UI.ASM   8-24-2010  6:19:47         PAGE 14


LOC  OBJECT CODE     LINE SOURCE TEXT
  VALUE

000000                00274                 BTFSS   CXreg+1,3
Error[151]  : Operand contains unresolvable labels or is too complex
Error[152]  : Executable code and data must be defined in an appropriate section
Error[152]  : Executable code and data must be defined in an appropriate section
000000                00275                 GOTO    SelFun7
Warning[207]: Found label after column 1. (CALLF)
Error[122]  : Illegal opcode (LCDsendDXLine2)
000000                00276                 CALLF   LCDsendDXLine2 
Error[150]  : Labels must be defined in a code or data section when making an object file
000000                00277 SelFun7           
                      00278         ; If Opt bit 1 is set then call the pre function
Error[113]  : Symbol not previously defined (CXreg)
Error[152]  : Executable code and data must be defined in an appropriate section
000000                00279                 BTFSS   CXreg+1,1
Error[152]  : Executable code and data must be defined in an appropriate section
000000                00280                 RETURN 
Warning[207]: Found label after column 1. (MOVLR)
Error[122]  : Illegal opcode (HIGH)
000000                00281                 MOVLR   HIGH PreCall
Error[113]  : Symbol not previously defined (WREG)
Error[152]  : Executable code and data must be defined in an appropriate section
000000                00282                 CLRF    WREG
Error[113]  : Symbol not previously defined (WREG)
Error[152]  : Executable code and data must be defined in an appropriate section
Error[113]  : Symbol not previously defined (PCLATU)
Error[152]  : Executable code and data must be defined in an appropriate section
000000                00283                 MOVFF   WREG,PCLATU
Error[113]  : Symbol not previously defined (PreCall)
Error[152]  : Executable code and data must be defined in an appropriate section
Error[113]  : Symbol not previously defined (WREG)
Error[152]  : Executable code and data must be defined in an appropriate section
000000                00284                 MOVFF   PreCall+1,WREG   
Error[113]  : Symbol not previously defined (WREG)
Error[152]  : Executable code and data must be defined in an appropriate section
Error[113]  : Symbol not previously defined (PCLATH)
Error[152]  : Executable code and data must be defined in an appropriate section
000000                00285                 MOVFF   WREG,PCLATH
Error[113]  : Symbol not previously defined (PreCall)
Error[152]  : Executable code and data must be defined in an appropriate section
Error[113]  : Symbol not previously defined (WREG)
Error[152]  : Executable code and data must be defined in an appropriate section
000000                00286                 MOVFF   PreCall,WREG   
Error[113]  : Symbol not previously defined (PCL)
Error[152]  : Executable code and data must be defined in an appropriate section
000000                00287                 MOVWF   PCL
                      00288 ;
                      00289 ; This function will look through the table for the value passed
                      00290 ; in reg WREG.
                      00291 ; Inputs:
                      00292 ;       BXreg = points to the start of the table
                      00293 ;       WREG  = Value we are looking for in the table
                      00294 ; Returns with BXreg pointing to the record that contains WREG's value
                      00295 ;
MPASM  5.37                            UI.ASM   8-24-2010  6:19:47         PAGE 15


LOC  OBJECT CODE     LINE SOURCE TEXT
  VALUE

Error[150]  : Labels must be defined in a code or data section when making an object file
000000                00296 FindSelection
Error[113]  : Symbol not previously defined (WREG)
Error[152]  : Executable code and data must be defined in an appropriate section
Error[113]  : Symbol not previously defined (Areg)
Error[152]  : Executable code and data must be defined in an appropriate section
000000                00297                 MOVFF   WREG,Areg
                      00298         ; Save BXreg
Warning[207]: Found label after column 1. (MOVE16)
Error[122]  : Illegal opcode (BXreg)
                      00299                 MOVE16  BXreg,EEXreg
                      00300         ; Get this locations value
Error[150]  : Labels must be defined in a code or data section when making an object file
000000                00301 AdvanceRecord
Error[113]  : Symbol not previously defined (BXreg)
Error[152]  : Executable code and data must be defined in an appropriate section
Error[113]  : Symbol not previously defined (TBLPTRL)
Error[152]  : Executable code and data must be defined in an appropriate section
000000                00302                 MOVFF   BXreg,TBLPTRL
Error[113]  : Symbol not previously defined (BXreg)
Error[152]  : Executable code and data must be defined in an appropriate section
Error[113]  : Symbol not previously defined (TBLPTRH)
Error[152]  : Executable code and data must be defined in an appropriate section
000000                00303                 MOVFF   BXreg+1,TBLPTRH
Error[113]  : Symbol not previously defined (TBLPTRU)
Error[113]  : Symbol not previously defined (A)
Error[152]  : Executable code and data must be defined in an appropriate section
000000                00304                 CLRF    TBLPTRU,A
                      00305         ; Add offset to the variable
Error[152]  : Executable code and data must be defined in an appropriate section
000000                00306                 MOVLW   D'21'
Error[113]  : Symbol not previously defined (TBLPTRL)
Error[152]  : Executable code and data must be defined in an appropriate section
000000                00307                 ADDWF   TBLPTRL
Error[113]  : Symbol not previously defined (C)
Error[113]  : Symbol not previously defined (ALUSTA)
Error[152]  : Executable code and data must be defined in an appropriate section
000000                00308                 BTFSC   ALUSTA,C
Error[113]  : Symbol not previously defined (TBLPTRH)
Error[152]  : Executable code and data must be defined in an appropriate section
000000                00309                 INCF    TBLPTRH
                      00310                 ; Load the variable...
Error[152]  : Executable code and data must be defined in an appropriate section
000000                00311                 TBLRD*+
Error[113]  : Symbol not previously defined (TABLAT)
Error[152]  : Executable code and data must be defined in an appropriate section
Error[113]  : Symbol not previously defined (WREG)
Error[152]  : Executable code and data must be defined in an appropriate section
000000                00312                 MOVFF   TABLAT,WREG
                      00313                 ; If WREG = Areg then exit!
Error[113]  : Symbol not previously defined (Areg)
Error[152]  : Executable code and data must be defined in an appropriate section
000000                00314                 CPFSEQ  Areg
MPASM  5.37                            UI.ASM   8-24-2010  6:19:47         PAGE 16


LOC  OBJECT CODE     LINE SOURCE TEXT
  VALUE

Error[151]  : Operand contains unresolvable labels or is too complex
Error[152]  : Executable code and data must be defined in an appropriate section
Error[152]  : Executable code and data must be defined in an appropriate section
000000                00315                 GOTO    NextRecord
Error[152]  : Executable code and data must be defined in an appropriate section
000000                00316                 RETURN
Error[150]  : Labels must be defined in a code or data section when making an object file
000000                00317 NextRecord
                      00318         ; Advance BXreg to next table entry
                      00319                 ; Load BXreg into the table pointer
Error[113]  : Symbol not previously defined (BXreg)
Error[152]  : Executable code and data must be defined in an appropriate section
Error[113]  : Symbol not previously defined (TBLPTRL)
Error[152]  : Executable code and data must be defined in an appropriate section
000000                00320                 MOVFF   BXreg,TBLPTRL
Error[113]  : Symbol not previously defined (BXreg)
Error[152]  : Executable code and data must be defined in an appropriate section
Error[113]  : Symbol not previously defined (TBLPTRH)
Error[152]  : Executable code and data must be defined in an appropriate section
000000                00321                 MOVFF   BXreg+1,TBLPTRH
Error[152]  : Executable code and data must be defined in an appropriate section
000000                00322                 MOVLW   D'17'
Error[113]  : Symbol not previously defined (TBLPTRL)
Error[152]  : Executable code and data must be defined in an appropriate section
000000                00323                 ADDWF   TBLPTRL
Error[113]  : Symbol not previously defined (C)
Error[113]  : Symbol not previously defined (ALUSTA)
Error[152]  : Executable code and data must be defined in an appropriate section
000000                00324                 BTFSC   ALUSTA,C
Error[113]  : Symbol not previously defined (TBLPTRH)
Error[152]  : Executable code and data must be defined in an appropriate section
000000                00325                 INCF    TBLPTRH
                      00326                 ; Load BXreg with the table pointer contents...
Error[152]  : Executable code and data must be defined in an appropriate section
000000                00327                 TBLRD*+
Error[113]  : Symbol not previously defined (TABLAT)
Error[152]  : Executable code and data must be defined in an appropriate section
Error[113]  : Symbol not previously defined (BXreg)
Error[152]  : Executable code and data must be defined in an appropriate section
000000                00328                 MOVFF   TABLAT,BXreg
Error[152]  : Executable code and data must be defined in an appropriate section
000000                00329                 TBLRD*+
Error[113]  : Symbol not previously defined (TABLAT)
Error[152]  : Executable code and data must be defined in an appropriate section
Error[113]  : Symbol not previously defined (BXreg)
Error[152]  : Executable code and data must be defined in an appropriate section
000000                00330                 MOVFF   TABLAT,BXreg+1
                      00331         ; If BXreg = EEXreg then we have been all the way around the loop, so exit anyway!
Error[113]  : Symbol not previously defined (BXreg)
Error[152]  : Executable code and data must be defined in an appropriate section
Error[113]  : Symbol not previously defined (WREG)
Error[152]  : Executable code and data must be defined in an appropriate section
000000                00332                 MOVFF   BXreg,WREG
MPASM  5.37                            UI.ASM   8-24-2010  6:19:47         PAGE 17


LOC  OBJECT CODE     LINE SOURCE TEXT
  VALUE

Error[113]  : Symbol not previously defined (EEXreg)
Error[152]  : Executable code and data must be defined in an appropriate section
000000                00333                 CPFSEQ  EEXreg
Error[151]  : Operand contains unresolvable labels or is too complex
Error[152]  : Executable code and data must be defined in an appropriate section
Error[152]  : Executable code and data must be defined in an appropriate section
000000                00334                 GOTO    AdvanceRecord
Error[113]  : Symbol not previously defined (BXreg)
Error[152]  : Executable code and data must be defined in an appropriate section
Error[113]  : Symbol not previously defined (WREG)
Error[152]  : Executable code and data must be defined in an appropriate section
000000                00335                 MOVFF   BXreg+1,WREG
Error[113]  : Symbol not previously defined (EEXreg)
Error[152]  : Executable code and data must be defined in an appropriate section
000000                00336                 CPFSEQ  EEXreg+1
Error[151]  : Operand contains unresolvable labels or is too complex
Error[152]  : Executable code and data must be defined in an appropriate section
Error[152]  : Executable code and data must be defined in an appropriate section
000000                00337                 GOTO    AdvanceRecord
Error[152]  : Executable code and data must be defined in an appropriate section
000000                00338                 RETURN     
                      00339                       
                      00340 ; This function calls the routine pointed to in BXreg and then
                      00341 ; returns to this routines caller.      
                      00342 ; If BXreg == 0 then this routine will exit
Error[150]  : Labels must be defined in a code or data section when making an object file
000000                00343 CallBXreg            
Error[113]  : Symbol not previously defined (BXreg)
Error[152]  : Executable code and data must be defined in an appropriate section
000000                00344                 MOVLB   HIGH BXreg
Error[113]  : Symbol not previously defined (BXreg)
Error[152]  : Executable code and data must be defined in an appropriate section
000000                00345                 MOVF    BXreg+1,W
Error[113]  : Symbol not previously defined (BXreg)
Error[152]  : Executable code and data must be defined in an appropriate section
000000                00346                 IORWF   BXreg,W
Error[113]  : Symbol not previously defined (Z)
Error[113]  : Symbol not previously defined (ALUSTA)
Error[152]  : Executable code and data must be defined in an appropriate section
000000                00347                 BTFSC   ALUSTA,Z
Error[152]  : Executable code and data must be defined in an appropriate section
000000                00348                 RETURN
Error[113]  : Symbol not previously defined (WREG)
Error[152]  : Executable code and data must be defined in an appropriate section
000000                00349                 CLRF    WREG
Error[113]  : Symbol not previously defined (PCLATU)
Error[152]  : Executable code and data must be defined in an appropriate section
000000                00350                 MOVWF   PCLATU
Error[113]  : Symbol not previously defined (BXreg)
Error[152]  : Executable code and data must be defined in an appropriate section
000000                00351                 MOVF    BXreg+1,W
Error[113]  : Symbol not previously defined (WREG)
Error[152]  : Executable code and data must be defined in an appropriate section
MPASM  5.37                            UI.ASM   8-24-2010  6:19:47         PAGE 18


LOC  OBJECT CODE     LINE SOURCE TEXT
  VALUE

Error[113]  : Symbol not previously defined (PCLATH)
Error[152]  : Executable code and data must be defined in an appropriate section
000000                00352                 MOVFF   WREG,PCLATH
Error[113]  : Symbol not previously defined (BXreg)
Error[152]  : Executable code and data must be defined in an appropriate section
000000                00353                 MOVF    BXreg,W
Error[113]  : Symbol not previously defined (PCL)
Error[152]  : Executable code and data must be defined in an appropriate section
000000                00354                 MOVWF   PCL
                      00355                 
                      00356 
                      00357 ;
                      00358 ; This function accepts input from the user.
                      00359 ; LSB of CXreg is input type
                      00360 ;       0 = pointer to selection table
                      00361 ;       1 = percent input
                      00362 ;       2 = u sec input
                      00363 ;       3 = yes/no input
                      00364 ;       4 = Channel, Ail - CH8
                      00365 ;       5 = Byte input
                      00366 ;       6 = Select Switch   
                      00367 ;       7 = function call, BXreg contails a 16 bit pointer to the function to be called 
                      00368 ;       8 = Milli volt edit function
                      00369 ;       9 =
                      00370 ;       A = yes/no input, bit flag, mask in LSB of DXreg
                      00371 ;       B = short signed int
                      00372 ;       C = signed int
                      00373 ; BXreg points to the variable location
                      00374 ;
                      00375 ;       CXreg = Opt:Type
                      00376 ;       Bxreg = ptr1, first optional word
                      00377 ;       DXreg = ptr2, second optional word
Error[150]  : Labels must be defined in a code or data section when making an object file
000000                00378 Input   
                      00379         ; Put low byte of BXreg in FSR1
Error[113]  : Symbol not previously defined (BXreg)
Error[152]  : Executable code and data must be defined in an appropriate section
000000                00380                 MOVLB   HIGH BXreg
Error[113]  : Symbol not previously defined (BXreg)
Error[152]  : Executable code and data must be defined in an appropriate section
000000                00381                 MOVF    BXreg,W
Error[113]  : Symbol not previously defined (FSR1L)
Error[152]  : Executable code and data must be defined in an appropriate section
000000                00382                 MOVWF   FSR1L
Error[113]  : Symbol not previously defined (BXreg)
Error[152]  : Executable code and data must be defined in an appropriate section
000000                00383                 MOVF    BXreg+1,W
Error[113]  : Symbol not previously defined (FSR1H)
Error[152]  : Executable code and data must be defined in an appropriate section
000000                00384                 MOVWF   FSR1H
                      00385         ; Get the type and decode...
Error[113]  : Symbol not previously defined (CXreg)
Error[152]  : Executable code and data must be defined in an appropriate section
MPASM  5.37                            UI.ASM   8-24-2010  6:19:47         PAGE 19


LOC  OBJECT CODE     LINE SOURCE TEXT
  VALUE

000000                00386                 MOVLB   HIGH CXreg
Error[152]  : Executable code and data must be defined in an appropriate section
000000                00387                 MOVLW   0
Error[113]  : Symbol not previously defined (CXreg)
Error[152]  : Executable code and data must be defined in an appropriate section
000000                00388                 CPFSEQ  CXreg
Error[151]  : Operand contains unresolvable labels or is too complex
Error[152]  : Executable code and data must be defined in an appropriate section
Error[152]  : Executable code and data must be defined in an appropriate section
000000                00389                 GOTO    Input1
                      00390                 ; Get the current variable from the selection table and load 
                      00391                 ; WREG with the current value
Error[113]  : Symbol not previously defined (BXreg)
Error[152]  : Executable code and data must be defined in an appropriate section
Error[113]  : Symbol not previously defined (TBLPTRL)
Error[152]  : Executable code and data must be defined in an appropriate section
000000                00392                 MOVFF   BXreg,TBLPTRL
Error[113]  : Symbol not previously defined (BXreg)
Error[152]  : Executable code and data must be defined in an appropriate section
Error[113]  : Symbol not previously defined (TBLPTRH)
Error[152]  : Executable code and data must be defined in an appropriate section
000000                00393                 MOVFF   BXreg+1,TBLPTRH
Error[113]  : Symbol not previously defined (TBLPTRU)
Error[113]  : Symbol not previously defined (A)
Error[152]  : Executable code and data must be defined in an appropriate section
000000                00394                 CLRF    TBLPTRU,A
Error[152]  : Executable code and data must be defined in an appropriate section
000000                00395                 MOVLW   D'22'
Error[113]  : Symbol not previously defined (TBLPTRL)
Error[113]  : Symbol not previously defined (A)
Error[152]  : Executable code and data must be defined in an appropriate section
000000                00396                 ADDWF   TBLPTRL,F,A
Error[113]  : Symbol not previously defined (C)
Error[113]  : Symbol not previously defined (ALUSTA)
Error[152]  : Executable code and data must be defined in an appropriate section
000000                00397                 BTFSC   ALUSTA,C
Error[113]  : Symbol not previously defined (TBLPTRH)
Error[113]  : Symbol not previously defined (A)
Error[152]  : Executable code and data must be defined in an appropriate section
000000                00398                 INCF    TBLPTRH,F,A
                      00399                 ; Load WREG with the value pointed to by DXreg
Error[113]  : Symbol not previously defined (DXreg)
Error[152]  : Executable code and data must be defined in an appropriate section
Error[113]  : Symbol not previously defined (FSR1L)
Error[152]  : Executable code and data must be defined in an appropriate section
000000                00400                 MOVFF   DXreg,FSR1L
Error[113]  : Symbol not previously defined (DXreg)
Error[152]  : Executable code and data must be defined in an appropriate section
Error[113]  : Symbol not previously defined (FSR1H)
Error[152]  : Executable code and data must be defined in an appropriate section
000000                00401                 MOVFF   DXreg+1,FSR1H
Error[113]  : Symbol not previously defined (INDF1)
Error[152]  : Executable code and data must be defined in an appropriate section
MPASM  5.37                            UI.ASM   8-24-2010  6:19:47         PAGE 20


LOC  OBJECT CODE     LINE SOURCE TEXT
  VALUE

Error[113]  : Symbol not previously defined (WREG)
Error[152]  : Executable code and data must be defined in an appropriate section
000000                00402                 MOVFF   INDF1,WREG      
Error[151]  : Operand contains unresolvable labels or is too complex
Error[152]  : Executable code and data must be defined in an appropriate section
Error[152]  : Executable code and data must be defined in an appropriate section
000000                00403                 CALL    FindSelection
Error[151]  : Operand contains unresolvable labels or is too complex
Error[152]  : Executable code and data must be defined in an appropriate section
Error[152]  : Executable code and data must be defined in an appropriate section
000000                00404                 CALL    VerticalSelection
Error[152]  : Executable code and data must be defined in an appropriate section
000000                00405                 RETURN
Error[150]  : Labels must be defined in a code or data section when making an object file
000000                00406 Input1
Error[152]  : Executable code and data must be defined in an appropriate section
000000                00407                 MOVLW   1
Error[113]  : Symbol not previously defined (CXreg)
Error[152]  : Executable code and data must be defined in an appropriate section
000000                00408                 CPFSEQ  CXreg
Error[151]  : Operand contains unresolvable labels or is too complex
Error[152]  : Executable code and data must be defined in an appropriate section
Error[152]  : Executable code and data must be defined in an appropriate section
000000                00409                 GOTO    Input2
                      00410         ; Here for percent input
Error[152]  : Executable code and data must be defined in an appropriate section
000000                00411                 MOVLW   '%'
Error[113]  : Symbol not previously defined (WREG)
Error[152]  : Executable code and data must be defined in an appropriate section
Error[113]  : Symbol not previously defined (Units)
Error[152]  : Executable code and data must be defined in an appropriate section
000000                00412                 MOVFF   WREG,Units      ; Set the units character
Error[151]  : Operand contains unresolvable labels or is too complex
Error[152]  : Executable code and data must be defined in an appropriate section
Error[152]  : Executable code and data must be defined in an appropriate section
000000                00413                 CALL    ADJpercent
Error[152]  : Executable code and data must be defined in an appropriate section
000000                00414                 RETURN
Error[150]  : Labels must be defined in a code or data section when making an object file
000000                00415 Input2
Error[152]  : Executable code and data must be defined in an appropriate section
000000                00416                 MOVLW   2
Error[113]  : Symbol not previously defined (CXreg)
Error[152]  : Executable code and data must be defined in an appropriate section
000000                00417                 CPFSEQ  CXreg
Error[151]  : Operand contains unresolvable labels or is too complex
Error[152]  : Executable code and data must be defined in an appropriate section
Error[152]  : Executable code and data must be defined in an appropriate section
000000                00418                 GOTO    Input3
                      00419         ; Here for uS input, no not change the 2 MS bits of the 
                      00420         ; variable, used for flags 
                      00421                 ; If CXreg+1 LSB is set then DXreg contains the
                      00422                 ; DriveCh value.
MPASM  5.37                            UI.ASM   8-24-2010  6:19:47         PAGE 21


LOC  OBJECT CODE     LINE SOURCE TEXT
  VALUE

Error[113]  : Symbol not previously defined (CXreg)
Error[152]  : Executable code and data must be defined in an appropriate section
000000                00423                 MOVLB   HIGH CXreg
Error[113]  : Symbol not previously defined (CXreg)
Error[152]  : Executable code and data must be defined in an appropriate section
000000                00424                 BTFSS   CXreg+1,0
Error[151]  : Operand contains unresolvable labels or is too complex
Error[152]  : Executable code and data must be defined in an appropriate section
Error[152]  : Executable code and data must be defined in an appropriate section
000000                00425                 GOTO    NoDriveCh
Error[113]  : Symbol not previously defined (DXreg)
Error[152]  : Executable code and data must be defined in an appropriate section
000000                00426                 MOVF    DXreg,W
Error[113]  : Symbol not previously defined (DriveCh)
Error[152]  : Executable code and data must be defined in an appropriate section
000000                00427                 MOVLB   HIGH DriveCh
Error[113]  : Symbol not previously defined (DriveCh)
Error[152]  : Executable code and data must be defined in an appropriate section
000000                00428                 MOVWF   DriveCh
Error[150]  : Labels must be defined in a code or data section when making an object file
000000                00429 NoDriveCh
                      00430                 ; Put variable in CXreg
Error[113]  : Symbol not previously defined (POSTINC1)
Error[152]  : Executable code and data must be defined in an appropriate section
Error[113]  : Symbol not previously defined (Areg)
Error[152]  : Executable code and data must be defined in an appropriate section
000000                00431                 MOVFF   POSTINC1,Areg
Error[113]  : Symbol not previously defined (POSTDEC1)
Error[152]  : Executable code and data must be defined in an appropriate section
Error[113]  : Symbol not previously defined (Breg)
Error[152]  : Executable code and data must be defined in an appropriate section
000000                00432                 MOVFF   POSTDEC1,Breg
Error[113]  : Symbol not previously defined (CXreg)
Error[152]  : Executable code and data must be defined in an appropriate section
000000                00433                 MOVLB   HIGH CXreg
Error[113]  : Symbol not previously defined (Areg)
Error[152]  : Executable code and data must be defined in an appropriate section
Error[113]  : Symbol not previously defined (CXreg)
Error[152]  : Executable code and data must be defined in an appropriate section
000000                00434                 MOVFF   Areg,CXreg
Error[113]  : Symbol not previously defined (Breg)
Error[152]  : Executable code and data must be defined in an appropriate section
Error[113]  : Symbol not previously defined (CXreg)
Error[152]  : Executable code and data must be defined in an appropriate section
000000                00435                 MOVFF   Breg,CXreg+1
Error[113]  : Symbol not previously defined (CXreg)
Error[152]  : Executable code and data must be defined in an appropriate section
000000                00436                 BCF     CXreg+1,7
Error[113]  : Symbol not previously defined (CXreg)
Error[152]  : Executable code and data must be defined in an appropriate section
000000                00437                 BCF     CXreg+1,6
Error[151]  : Operand contains unresolvable labels or is too complex
Error[152]  : Executable code and data must be defined in an appropriate section
MPASM  5.37                            UI.ASM   8-24-2010  6:19:47         PAGE 22


LOC  OBJECT CODE     LINE SOURCE TEXT
  VALUE

Error[152]  : Executable code and data must be defined in an appropriate section
000000                00438                 CALL    ADJuS
                      00439                 ; Write result back
Error[113]  : Symbol not previously defined (BXreg)
Error[152]  : Executable code and data must be defined in an appropriate section
000000                00440                 MOVLB   HIGH BXreg
Error[113]  : Symbol not previously defined (BXreg)
Error[152]  : Executable code and data must be defined in an appropriate section
Error[113]  : Symbol not previously defined (FSR1L)
Error[152]  : Executable code and data must be defined in an appropriate section
000000                00441                 MOVFF   BXreg,FSR1L
Error[113]  : Symbol not previously defined (BXreg)
Error[152]  : Executable code and data must be defined in an appropriate section
Error[113]  : Symbol not previously defined (FSR1H)
Error[152]  : Executable code and data must be defined in an appropriate section
000000                00442                 MOVFF   BXreg+1,FSR1H
Error[113]  : Symbol not previously defined (CXreg)
Error[152]  : Executable code and data must be defined in an appropriate section
Error[113]  : Symbol not previously defined (Areg)
Error[152]  : Executable code and data must be defined in an appropriate section
000000                00443                 MOVFF   CXreg,Areg
Error[113]  : Symbol not previously defined (CXreg)
Error[152]  : Executable code and data must be defined in an appropriate section
Error[113]  : Symbol not previously defined (Breg)
Error[152]  : Executable code and data must be defined in an appropriate section
000000                00444                 MOVFF   CXreg+1,Breg
Warning[207]: Found label after column 1. (MOVPF)
Error[122]  : Illegal opcode (Areg)
000000                00445                 MOVPF   Areg,POSTINC1
Error[113]  : Symbol not previously defined (INDF1)
Error[152]  : Executable code and data must be defined in an appropriate section
Error[113]  : Symbol not previously defined (WREG)
Error[152]  : Executable code and data must be defined in an appropriate section
000000                00446                 MOVFF   INDF1,WREG
Error[152]  : Executable code and data must be defined in an appropriate section
000000                00447                 ANDLW   0C0
Error[113]  : Symbol not previously defined (Breg)
Error[152]  : Executable code and data must be defined in an appropriate section
000000                00448                 IORWF   Breg,F
Error[113]  : Symbol not previously defined (Breg)
Error[152]  : Executable code and data must be defined in an appropriate section
Error[113]  : Symbol not previously defined (POSTDEC1)
Error[152]  : Executable code and data must be defined in an appropriate section
000000                00449                 MOVFF   Breg,POSTDEC1
Error[152]  : Executable code and data must be defined in an appropriate section
000000                00450                 RETURN
Error[150]  : Labels must be defined in a code or data section when making an object file
000000                00451 Input3
Error[152]  : Executable code and data must be defined in an appropriate section
000000                00452                 MOVLW   3
Error[113]  : Symbol not previously defined (CXreg)
Error[152]  : Executable code and data must be defined in an appropriate section
000000                00453                 CPFSEQ  CXreg
MPASM  5.37                            UI.ASM   8-24-2010  6:19:47         PAGE 23


LOC  OBJECT CODE     LINE SOURCE TEXT
  VALUE

Error[151]  : Operand contains unresolvable labels or is too complex
Error[152]  : Executable code and data must be defined in an appropriate section
Error[152]  : Executable code and data must be defined in an appropriate section
000000                00454                 GOTO    Input4
                      00455         ; Here for Yes/No input using byte flag
Error[113]  : Symbol not previously defined (INDF1)
Error[152]  : Executable code and data must be defined in an appropriate section
Error[113]  : Symbol not previously defined (WREG)
Error[152]  : Executable code and data must be defined in an appropriate section
000000                00456                 MOVFF   INDF1,WREG
Error[113]  : Symbol not previously defined (WREG)
Error[152]  : Executable code and data must be defined in an appropriate section
000000                00457                 RLCF    WREG
Error[151]  : Operand contains unresolvable labels or is too complex
Error[152]  : Executable code and data must be defined in an appropriate section
Error[152]  : Executable code and data must be defined in an appropriate section
000000                00458                 CALL    YesNo
Error[152]  : Executable code and data must be defined in an appropriate section
000000                00459                 MOVLW   0
Error[113]  : Symbol not previously defined (C)
Error[113]  : Symbol not previously defined (ALUSTA)
Error[152]  : Executable code and data must be defined in an appropriate section
000000                00460                 BTFSC   ALUSTA,C
Error[113]  : Symbol not previously defined (WREG)
Error[152]  : Executable code and data must be defined in an appropriate section
000000                00461                 COMF    WREG
Error[113]  : Symbol not previously defined (Areg)
Error[152]  : Executable code and data must be defined in an appropriate section
000000                00462                 MOVWF   Areg
Error[113]  : Symbol not previously defined (BXreg)
Error[152]  : Executable code and data must be defined in an appropriate section
000000                00463                 MOVLB   HIGH BXreg
Error[113]  : Symbol not previously defined (BXreg)
Error[152]  : Executable code and data must be defined in an appropriate section
Error[113]  : Symbol not previously defined (FSR1L)
Error[152]  : Executable code and data must be defined in an appropriate section
000000                00464                 MOVFF   BXreg,FSR1L
Error[113]  : Symbol not previously defined (BXreg)
Error[152]  : Executable code and data must be defined in an appropriate section
Error[113]  : Symbol not previously defined (FSR1H)
Error[152]  : Executable code and data must be defined in an appropriate section
000000                00465                 MOVFF   BXreg+1,FSR1H
Warning[207]: Found label after column 1. (MOVPF)
Error[122]  : Illegal opcode (Areg)
000000                00466                 MOVPF   Areg,INDF1
Error[152]  : Executable code and data must be defined in an appropriate section
000000                00467                 RETURN
Error[150]  : Labels must be defined in a code or data section when making an object file
000000                00468 Input4
Error[152]  : Executable code and data must be defined in an appropriate section
000000                00469                 MOVLW   4
Error[113]  : Symbol not previously defined (CXreg)
Error[152]  : Executable code and data must be defined in an appropriate section
MPASM  5.37                            UI.ASM   8-24-2010  6:19:47         PAGE 24


LOC  OBJECT CODE     LINE SOURCE TEXT
  VALUE

000000                00470                 CPFSEQ  CXreg
Error[151]  : Operand contains unresolvable labels or is too complex
Error[152]  : Executable code and data must be defined in an appropriate section
Error[152]  : Executable code and data must be defined in an appropriate section
000000                00471                 GOTO    Input5
                      00472         ; Here for channel selection input
Error[113]  : Symbol not previously defined (INDF1)
Error[152]  : Executable code and data must be defined in an appropriate section
Error[113]  : Symbol not previously defined (WREG)
Error[152]  : Executable code and data must be defined in an appropriate section
000000                00473                 MOVFF   INDF1,WREG      ; Load the current value
Error[151]  : Operand contains unresolvable labels or is too complex
Error[152]  : Executable code and data must be defined in an appropriate section
Error[152]  : Executable code and data must be defined in an appropriate section
000000                00474                 CALL    SelectChannel
Error[113]  : Symbol not previously defined (Areg)
Error[152]  : Executable code and data must be defined in an appropriate section
000000                00475                 MOVWF   Areg
Error[113]  : Symbol not previously defined (BXreg)
Error[152]  : Executable code and data must be defined in an appropriate section
000000                00476                 MOVLB   HIGH BXreg
Error[113]  : Symbol not previously defined (BXreg)
Error[152]  : Executable code and data must be defined in an appropriate section
Error[113]  : Symbol not previously defined (FSR1L)
Error[152]  : Executable code and data must be defined in an appropriate section
000000                00477                 MOVFF   BXreg,FSR1L
Error[113]  : Symbol not previously defined (BXreg)
Error[152]  : Executable code and data must be defined in an appropriate section
Error[113]  : Symbol not previously defined (FSR1H)
Error[152]  : Executable code and data must be defined in an appropriate section
000000                00478                 MOVFF   BXreg+1,FSR1H
Warning[207]: Found label after column 1. (MOVPF)
Error[122]  : Illegal opcode (Areg)
000000                00479                 MOVPF   Areg,INDF1
Error[152]  : Executable code and data must be defined in an appropriate section
000000                00480                 RETURN
Error[150]  : Labels must be defined in a code or data section when making an object file
000000                00481 Input5
Error[152]  : Executable code and data must be defined in an appropriate section
000000                00482                 MOVLW   5
Error[113]  : Symbol not previously defined (CXreg)
Error[152]  : Executable code and data must be defined in an appropriate section
000000                00483                 CPFSEQ  CXreg
Error[151]  : Operand contains unresolvable labels or is too complex
Error[152]  : Executable code and data must be defined in an appropriate section
Error[152]  : Executable code and data must be defined in an appropriate section
000000                00484                 GOTO    Input6
                      00485         ; Here for byte input
Error[113]  : Symbol not previously defined (INDF1)
Error[152]  : Executable code and data must be defined in an appropriate section
Error[113]  : Symbol not previously defined (WREG)
Error[152]  : Executable code and data must be defined in an appropriate section
000000                00486                 MOVFF   INDF1,WREG
MPASM  5.37                            UI.ASM   8-24-2010  6:19:47         PAGE 25


LOC  OBJECT CODE     LINE SOURCE TEXT
  VALUE

Error[151]  : Operand contains unresolvable labels or is too complex
Error[152]  : Executable code and data must be defined in an appropriate section
Error[152]  : Executable code and data must be defined in an appropriate section
000000                00487                 CALL    ADJbyte
Error[113]  : Symbol not previously defined (WREG)
Error[152]  : Executable code and data must be defined in an appropriate section
Error[113]  : Symbol not previously defined (Areg)
Error[152]  : Executable code and data must be defined in an appropriate section
000000                00488                 MOVFF   WREG,Areg
Error[113]  : Symbol not previously defined (BXreg)
Error[152]  : Executable code and data must be defined in an appropriate section
000000                00489                 MOVLB   HIGH BXreg
Error[113]  : Symbol not previously defined (BXreg)
Error[152]  : Executable code and data must be defined in an appropriate section
Error[113]  : Symbol not previously defined (FSR1L)
Error[152]  : Executable code and data must be defined in an appropriate section
000000                00490                 MOVFF   BXreg,FSR1L
Error[113]  : Symbol not previously defined (BXreg)
Error[152]  : Executable code and data must be defined in an appropriate section
Error[113]  : Symbol not previously defined (FSR1H)
Error[152]  : Executable code and data must be defined in an appropriate section
000000                00491                 MOVFF   BXreg+1,FSR1H
Error[113]  : Symbol not previously defined (Areg)
Error[152]  : Executable code and data must be defined in an appropriate section
Error[113]  : Symbol not previously defined (INDF1)
Error[152]  : Executable code and data must be defined in an appropriate section
000000                00492                 MOVFF   Areg,INDF1              
Error[152]  : Executable code and data must be defined in an appropriate section
000000                00493                 RETURN
Error[150]  : Labels must be defined in a code or data section when making an object file
000000                00494 Input6
Error[152]  : Executable code and data must be defined in an appropriate section
000000                00495                 MOVLW   6
Error[113]  : Symbol not previously defined (CXreg)
Error[152]  : Executable code and data must be defined in an appropriate section
000000                00496                 CPFSEQ  CXreg
Error[151]  : Operand contains unresolvable labels or is too complex
Error[152]  : Executable code and data must be defined in an appropriate section
Error[152]  : Executable code and data must be defined in an appropriate section
000000                00497                 GOTO    Input7
                      00498         ; Here for switch selection
Error[113]  : Symbol not previously defined (INDF1)
Error[152]  : Executable code and data must be defined in an appropriate section
Error[113]  : Symbol not previously defined (Areg)
Error[152]  : Executable code and data must be defined in an appropriate section
000000                00499                 MOVFF   INDF1,Areg              ; This is the current value
Warning[207]: Found label after column 1. (MOVE16)
Error[122]  : Illegal opcode (BXreg)
000000                00500                 MOVE16  BXreg,DXreg             ; Save the pointer to selected variable
Warning[207]: Found label after column 1. (MOVEC)
Error[122]  : Illegal opcode (SWMENU1)
000000                00501                 MOVEC   SWMENU1,BXreg           ; Point to the switch table
Error[113]  : Symbol not previously defined (Areg)
MPASM  5.37                            UI.ASM   8-24-2010  6:19:47         PAGE 26


LOC  OBJECT CODE     LINE SOURCE TEXT
  VALUE

Error[152]  : Executable code and data must be defined in an appropriate section
Error[113]  : Symbol not previously defined (WREG)
Error[152]  : Executable code and data must be defined in an appropriate section
000000                00502                 MOVFF   Areg,WREG
Error[151]  : Operand contains unresolvable labels or is too complex
Error[152]  : Executable code and data must be defined in an appropriate section
Error[152]  : Executable code and data must be defined in an appropriate section
000000                00503                 CALL    FindSelection           ; This will adjust BXreg to point to
                      00504                                                 ; the current selection.
Error[151]  : Operand contains unresolvable labels or is too complex
Error[152]  : Executable code and data must be defined in an appropriate section
Error[152]  : Executable code and data must be defined in an appropriate section
000000                00505                 CALL    VerticalSelection       ; Let the user make a selectoion,
                      00506                                                 ; The result is in SWselect.
Error[152]  : Executable code and data must be defined in an appropriate section
000000                00507                 RETURN
Error[150]  : Labels must be defined in a code or data section when making an object file
000000                00508 Input7
Error[152]  : Executable code and data must be defined in an appropriate section
000000                00509                 MOVLW   7
Error[113]  : Symbol not previously defined (CXreg)
Error[152]  : Executable code and data must be defined in an appropriate section
000000                00510                 CPFSEQ  CXreg
Error[151]  : Operand contains unresolvable labels or is too complex
Error[152]  : Executable code and data must be defined in an appropriate section
Error[152]  : Executable code and data must be defined in an appropriate section
000000                00511                 GOTO    Input8
                      00512         ; Here for function call, pointer in BXreg
Error[151]  : Operand contains unresolvable labels or is too complex
Error[152]  : Executable code and data must be defined in an appropriate section
Error[152]  : Executable code and data must be defined in an appropriate section
000000                00513                 CALL    CallBXreg 
Error[152]  : Executable code and data must be defined in an appropriate section
000000                00514                 RETURN
Error[150]  : Labels must be defined in a code or data section when making an object file
000000                00515 Input8
Error[152]  : Executable code and data must be defined in an appropriate section
000000                00516                 MOVLW   8
Error[113]  : Symbol not previously defined (CXreg)
Error[152]  : Executable code and data must be defined in an appropriate section
000000                00517                 CPFSEQ  CXreg
Error[151]  : Operand contains unresolvable labels or is too complex
Error[152]  : Executable code and data must be defined in an appropriate section
Error[152]  : Executable code and data must be defined in an appropriate section
000000                00518                 GOTO    Input9
                      00519         ; Here for voltage input
Error[113]  : Symbol not previously defined (INDF1)
Error[152]  : Executable code and data must be defined in an appropriate section
Error[113]  : Symbol not previously defined (WREG)
Error[152]  : Executable code and data must be defined in an appropriate section
000000                00520                 MOVFF   INDF1,WREG
Error[151]  : Operand contains unresolvable labels or is too complex
Error[152]  : Executable code and data must be defined in an appropriate section
MPASM  5.37                            UI.ASM   8-24-2010  6:19:47         PAGE 27


LOC  OBJECT CODE     LINE SOURCE TEXT
  VALUE

Error[152]  : Executable code and data must be defined in an appropriate section
000000                00521                 CALL    ADJvolt
Error[113]  : Symbol not previously defined (WREG)
Error[152]  : Executable code and data must be defined in an appropriate section
Error[113]  : Symbol not previously defined (Areg)
Error[152]  : Executable code and data must be defined in an appropriate section
000000                00522                 MOVFF   WREG,Areg
Error[113]  : Symbol not previously defined (BXreg)
Error[152]  : Executable code and data must be defined in an appropriate section
000000                00523                 MOVLB   HIGH BXreg
Error[113]  : Symbol not previously defined (BXreg)
Error[152]  : Executable code and data must be defined in an appropriate section
Error[113]  : Symbol not previously defined (FSR1L)
Error[152]  : Executable code and data must be defined in an appropriate section
000000                00524                 MOVFF   BXreg,FSR1L
Error[113]  : Symbol not previously defined (BXreg)
Error[152]  : Executable code and data must be defined in an appropriate section
Error[113]  : Symbol not previously defined (FSR1H)
Error[152]  : Executable code and data must be defined in an appropriate section
000000                00525                 MOVFF   BXreg+1,FSR1H
Error[113]  : Symbol not previously defined (Areg)
Error[152]  : Executable code and data must be defined in an appropriate section
Error[113]  : Symbol not previously defined (INDF1)
Error[152]  : Executable code and data must be defined in an appropriate section
000000                00526                 MOVFF   Areg,INDF1              
Error[150]  : Labels must be defined in a code or data section when making an object file
000000                00527 Input9
Error[152]  : Executable code and data must be defined in an appropriate section
000000                00528                 MOVLW   0A
Error[113]  : Symbol not previously defined (CXreg)
Error[152]  : Executable code and data must be defined in an appropriate section
000000                00529                 CPFSEQ  CXreg
Error[151]  : Operand contains unresolvable labels or is too complex
Error[152]  : Executable code and data must be defined in an appropriate section
Error[152]  : Executable code and data must be defined in an appropriate section
000000                00530                 GOTO    InputB
                      00531         ; Here for Yes/No input using bit flag
Error[113]  : Symbol not previously defined (INDF1)
Error[152]  : Executable code and data must be defined in an appropriate section
Error[113]  : Symbol not previously defined (WREG)
Error[152]  : Executable code and data must be defined in an appropriate section
000000                00532                 MOVFF   INDF1,WREG
Error[113]  : Symbol not previously defined (DXreg)
Error[152]  : Executable code and data must be defined in an appropriate section
000000                00533                 MOVLB   HIGH DXreg
Error[113]  : Symbol not previously defined (DXreg)
Error[152]  : Executable code and data must be defined in an appropriate section
000000                00534                 ANDWF   DXreg,W
Error[113]  : Symbol not previously defined (C)
Error[113]  : Symbol not previously defined (ALUSTA)
Error[152]  : Executable code and data must be defined in an appropriate section
000000                00535                 BCF     ALUSTA,C
Error[113]  : Symbol not previously defined (Z)
MPASM  5.37                            UI.ASM   8-24-2010  6:19:47         PAGE 28


LOC  OBJECT CODE     LINE SOURCE TEXT
  VALUE

Error[113]  : Symbol not previously defined (ALUSTA)
Error[152]  : Executable code and data must be defined in an appropriate section
000000                00536                 BTFSC   ALUSTA,Z
Error[113]  : Symbol not previously defined (C)
Error[113]  : Symbol not previously defined (ALUSTA)
Error[152]  : Executable code and data must be defined in an appropriate section
000000                00537                 BSF     ALUSTA,C
Error[151]  : Operand contains unresolvable labels or is too complex
Error[152]  : Executable code and data must be defined in an appropriate section
Error[152]  : Executable code and data must be defined in an appropriate section
000000                00538                 CALL    YesNo
Error[113]  : Symbol not previously defined (DXreg)
Error[152]  : Executable code and data must be defined in an appropriate section
000000                00539                 MOVLB   HIGH DXreg
Error[113]  : Symbol not previously defined (DXreg)
Error[152]  : Executable code and data must be defined in an appropriate section
Error[113]  : Symbol not previously defined (Areg)
Error[152]  : Executable code and data must be defined in an appropriate section
000000                00540                 MOVFF   DXreg,Areg
Error[113]  : Symbol not previously defined (BXreg)
Error[152]  : Executable code and data must be defined in an appropriate section
000000                00541                 MOVLB   HIGH BXreg
Error[113]  : Symbol not previously defined (BXreg)
Error[152]  : Executable code and data must be defined in an appropriate section
Error[113]  : Symbol not previously defined (FSR1L)
Error[152]  : Executable code and data must be defined in an appropriate section
000000                00542                 MOVFF   BXreg,FSR1L
Error[113]  : Symbol not previously defined (BXreg)
Error[152]  : Executable code and data must be defined in an appropriate section
Error[113]  : Symbol not previously defined (FSR1H)
Error[152]  : Executable code and data must be defined in an appropriate section
000000                00543                 MOVFF   BXreg+1,FSR1H
Error[113]  : Symbol not previously defined (C)
Error[113]  : Symbol not previously defined (ALUSTA)
Error[152]  : Executable code and data must be defined in an appropriate section
000000                00544                 BTFSC   ALUSTA,C
Error[151]  : Operand contains unresolvable labels or is too complex
Error[152]  : Executable code and data must be defined in an appropriate section
Error[152]  : Executable code and data must be defined in an appropriate section
000000                00545                 GOTO    Input8a
Error[113]  : Symbol not previously defined (Areg)
Error[152]  : Executable code and data must be defined in an appropriate section
Error[113]  : Symbol not previously defined (WREG)
Error[152]  : Executable code and data must be defined in an appropriate section
000000                00546                 MOVFF   Areg,WREG
Error[113]  : Symbol not previously defined (INDF1)
Error[152]  : Executable code and data must be defined in an appropriate section
000000                00547                 IORWF   INDF1
Error[152]  : Executable code and data must be defined in an appropriate section
000000                00548                 RETURN
Error[150]  : Labels must be defined in a code or data section when making an object file
000000                00549 Input8a              
Error[113]  : Symbol not previously defined (Areg)
MPASM  5.37                            UI.ASM   8-24-2010  6:19:47         PAGE 29


LOC  OBJECT CODE     LINE SOURCE TEXT
  VALUE

Error[152]  : Executable code and data must be defined in an appropriate section
Error[113]  : Symbol not previously defined (WREG)
Error[152]  : Executable code and data must be defined in an appropriate section
000000                00550                 MOVFF   Areg,WREG
Error[113]  : Symbol not previously defined (WREG)
Error[152]  : Executable code and data must be defined in an appropriate section
000000                00551                 COMF    WREG
Error[113]  : Symbol not previously defined (INDF1)
Error[152]  : Executable code and data must be defined in an appropriate section
000000                00552                 ANDWF   INDF1
Error[152]  : Executable code and data must be defined in an appropriate section
000000                00553                 RETURN        
Error[150]  : Labels must be defined in a code or data section when making an object file
000000                00554 InputB
Error[152]  : Executable code and data must be defined in an appropriate section
000000                00555                 MOVLW   0B
Error[113]  : Symbol not previously defined (CXreg)
Error[152]  : Executable code and data must be defined in an appropriate section
000000                00556                 CPFSEQ  CXreg
Error[151]  : Operand contains unresolvable labels or is too complex
Error[152]  : Executable code and data must be defined in an appropriate section
Error[152]  : Executable code and data must be defined in an appropriate section
000000                00557                 GOTO    InputC
                      00558         ; Here for short int input, signed byte
Error[152]  : Executable code and data must be defined in an appropriate section
000000                00559                 MOVLW   ' '
Error[113]  : Symbol not previously defined (WREG)
Error[152]  : Executable code and data must be defined in an appropriate section
Error[113]  : Symbol not previously defined (Units)
Error[152]  : Executable code and data must be defined in an appropriate section
000000                00560                 MOVFF   WREG,Units      ; Set the units character
Error[151]  : Operand contains unresolvable labels or is too complex
Error[152]  : Executable code and data must be defined in an appropriate section
Error[152]  : Executable code and data must be defined in an appropriate section
000000                00561                 CALL    ADJpercent
Error[152]  : Executable code and data must be defined in an appropriate section
000000                00562                 RETURN
Error[150]  : Labels must be defined in a code or data section when making an object file
000000                00563 InputC
Error[152]  : Executable code and data must be defined in an appropriate section
000000                00564                 MOVLW   0C
Error[113]  : Symbol not previously defined (CXreg)
Error[152]  : Executable code and data must be defined in an appropriate section
000000                00565                 CPFSEQ  CXreg
Error[151]  : Operand contains unresolvable labels or is too complex
Error[152]  : Executable code and data must be defined in an appropriate section
Error[152]  : Executable code and data must be defined in an appropriate section
000000                00566                 GOTO    InputD
                      00567         ; Here for int input, signed 16 bit value
                      00568                 ; Put variable in CXreg
Error[113]  : Symbol not previously defined (POSTINC1)
Error[152]  : Executable code and data must be defined in an appropriate section
Error[113]  : Symbol not previously defined (Areg)
MPASM  5.37                            UI.ASM   8-24-2010  6:19:47         PAGE 30


LOC  OBJECT CODE     LINE SOURCE TEXT
  VALUE

Error[152]  : Executable code and data must be defined in an appropriate section
000000                00569                 MOVFF   POSTINC1,Areg
Error[113]  : Symbol not previously defined (POSTDEC1)
Error[152]  : Executable code and data must be defined in an appropriate section
Error[113]  : Symbol not previously defined (Breg)
Error[152]  : Executable code and data must be defined in an appropriate section
000000                00570                 MOVFF   POSTDEC1,Breg
Error[113]  : Symbol not previously defined (CXreg)
Error[152]  : Executable code and data must be defined in an appropriate section
000000                00571                 MOVLB   HIGH CXreg
Error[113]  : Symbol not previously defined (Areg)
Error[152]  : Executable code and data must be defined in an appropriate section
Error[113]  : Symbol not previously defined (CXreg)
Error[152]  : Executable code and data must be defined in an appropriate section
000000                00572                 MOVFF   Areg,CXreg
Error[113]  : Symbol not previously defined (Breg)
Error[152]  : Executable code and data must be defined in an appropriate section
Error[113]  : Symbol not previously defined (CXreg)
Error[152]  : Executable code and data must be defined in an appropriate section
000000                00573                 MOVFF   Breg,CXreg+1
Error[151]  : Operand contains unresolvable labels or is too complex
Error[152]  : Executable code and data must be defined in an appropriate section
Error[152]  : Executable code and data must be defined in an appropriate section
000000                00574                 CALL    ADJinteger
                      00575                 ; Write result back
Error[113]  : Symbol not previously defined (BXreg)
Error[152]  : Executable code and data must be defined in an appropriate section
000000                00576                 MOVLB   HIGH BXreg
Error[113]  : Symbol not previously defined (BXreg)
Error[152]  : Executable code and data must be defined in an appropriate section
Error[113]  : Symbol not previously defined (FSR1L)
Error[152]  : Executable code and data must be defined in an appropriate section
000000                00577                 MOVFF   BXreg,FSR1L
Error[113]  : Symbol not previously defined (BXreg)
Error[152]  : Executable code and data must be defined in an appropriate section
Error[113]  : Symbol not previously defined (FSR1H)
Error[152]  : Executable code and data must be defined in an appropriate section
000000                00578                 MOVFF   BXreg+1,FSR1H
Error[113]  : Symbol not previously defined (CXreg)
Error[152]  : Executable code and data must be defined in an appropriate section
Error[113]  : Symbol not previously defined (Areg)
Error[152]  : Executable code and data must be defined in an appropriate section
000000                00579                 MOVFF   CXreg,Areg
Error[113]  : Symbol not previously defined (CXreg)
Error[152]  : Executable code and data must be defined in an appropriate section
Error[113]  : Symbol not previously defined (Breg)
Error[152]  : Executable code and data must be defined in an appropriate section
000000                00580                 MOVFF   CXreg+1,Breg
Warning[207]: Found label after column 1. (MOVPF)
Error[122]  : Illegal opcode (Areg)
000000                00581                 MOVPF   Areg,POSTINC1
Error[113]  : Symbol not previously defined (Breg)
Error[152]  : Executable code and data must be defined in an appropriate section
MPASM  5.37                            UI.ASM   8-24-2010  6:19:47         PAGE 31


LOC  OBJECT CODE     LINE SOURCE TEXT
  VALUE

Error[113]  : Symbol not previously defined (POSTDEC1)
Error[152]  : Executable code and data must be defined in an appropriate section
000000                00582                 MOVFF   Breg,POSTDEC1
Error[152]  : Executable code and data must be defined in an appropriate section
000000                00583                 RETURN
Error[150]  : Labels must be defined in a code or data section when making an object file
000000                00584 InputD
Error[152]  : Executable code and data must be defined in an appropriate section
000000                00585                 RETURN
                      00586 ; This function displays Accept on the second line of the
                      00587 ; LCD display. The Aileron stick is used to change the selection
                      00588 ; from Yes to No. The default entry is set by the carry flag
                      00589 ; when the function is called. The carry flag also defines the
                      00590 ; users selection:
                      00591 ;       C set for Yes
                      00592 ;       C clear for No
Error[150]  : Labels must be defined in a code or data section when making an object file
000000                00593 Accept
                      00594         ; Set the flag in Areg
Error[113]  : Symbol not previously defined (Breg)
Error[152]  : Executable code and data must be defined in an appropriate section
000000                00595                 CLRF    Breg
Error[113]  : Symbol not previously defined (C)
Error[113]  : Symbol not previously defined (ALUSTA)
Error[152]  : Executable code and data must be defined in an appropriate section
000000                00596                 BTFSC   ALUSTA,C
Error[113]  : Symbol not previously defined (Breg)
Error[152]  : Executable code and data must be defined in an appropriate section
000000                00597                 COMF    Breg
                      00598         ; Print the accept text...
Warning[207]: Found label after column 1. (CALLFL)
Error[122]  : Illegal opcode (LCDsendCMD)
                      00599                 CALLFL  LCDsendCMD,LINE2
Warning[207]: Found label after column 1. (PrintMess)
Error[122]  : Illegal opcode (MES7)
                      00600                 PrintMess MES7
Error[150]  : Labels must be defined in a code or data section when making an object file
000000                00601 AcceptLoop
Error[113]  : Symbol not previously defined (Breg)
Error[152]  : Executable code and data must be defined in an appropriate section
000000                00602                 BTFSS   Breg,0
Error[151]  : Operand contains unresolvable labels or is too complex
Error[152]  : Executable code and data must be defined in an appropriate section
Error[152]  : Executable code and data must be defined in an appropriate section
000000                00603                 GOTO    Accept1
                      00604         ; Highlight Yes
Warning[207]: Found label after column 1. (CALLFL)
Error[122]  : Illegal opcode (LCDsendCMD)
                      00605                 CALLFL  LCDsendCMD,LINE2+YPOS
Warning[207]: Found label after column 1. (CALLFL)
Error[122]  : Illegal opcode (LCDsendData)
                      00606                 CALLFL  LCDsendData,'('
Warning[207]: Found label after column 1. (CALLFL)
MPASM  5.37                            UI.ASM   8-24-2010  6:19:47         PAGE 32


LOC  OBJECT CODE     LINE SOURCE TEXT
  VALUE

Error[122]  : Illegal opcode (LCDsendCMD)
                      00607                 CALLFL  LCDsendCMD,LINE2+YNPOS
Warning[207]: Found label after column 1. (CALLFL)
Error[122]  : Illegal opcode (LCDsendData)
                      00608                 CALLFL  LCDsendData,')'
Warning[207]: Found label after column 1. (CALLFL)
Error[122]  : Illegal opcode (LCDsendCMD)
                      00609                 CALLFL  LCDsendCMD,LINE2+NPOS
Warning[207]: Found label after column 1. (CALLFL)
Error[122]  : Illegal opcode (LCDsendData)
                      00610                 CALLFL  LCDsendData,' '
Error[151]  : Operand contains unresolvable labels or is too complex
Error[152]  : Executable code and data must be defined in an appropriate section
Error[152]  : Executable code and data must be defined in an appropriate section
000000                00611                 GOTO    Accept2
Error[150]  : Labels must be defined in a code or data section when making an object file
000000                00612 Accept1
                      00613         ; Highlight No
Warning[207]: Found label after column 1. (CALLFL)
Error[122]  : Illegal opcode (LCDsendCMD)
                      00614                 CALLFL  LCDsendCMD,LINE2+YPOS
Warning[207]: Found label after column 1. (CALLFL)
Error[122]  : Illegal opcode (LCDsendData)
                      00615                 CALLFL  LCDsendData,' '
Warning[207]: Found label after column 1. (CALLFL)
Error[122]  : Illegal opcode (LCDsendCMD)
                      00616                 CALLFL  LCDsendCMD,LINE2+YNPOS
Warning[207]: Found label after column 1. (CALLFL)
Error[122]  : Illegal opcode (LCDsendData)
                      00617                 CALLFL  LCDsendData,'('
Warning[207]: Found label after column 1. (CALLFL)
Error[122]  : Illegal opcode (LCDsendCMD)
                      00618                 CALLFL  LCDsendCMD,LINE2+NPOS
Warning[207]: Found label after column 1. (CALLFL)
Error[122]  : Illegal opcode (LCDsendData)
                      00619                 CALLFL  LCDsendData,')'
Error[150]  : Labels must be defined in a code or data section when making an object file
000000                00620 Accept2
                      00621         ; Call Aileron position test....
                      00622         ;   Z flag set if Right
                      00623         ;   C flag set if Left
Error[151]  : Operand contains unresolvable labels or is too complex
Error[152]  : Executable code and data must be defined in an appropriate section
Error[152]  : Executable code and data must be defined in an appropriate section
000000                00624                 CALL    Aileron
Error[113]  : Symbol not previously defined (Z)
Error[113]  : Symbol not previously defined (ALUSTA)
Error[152]  : Executable code and data must be defined in an appropriate section
000000                00625                 BTFSC   ALUSTA,Z
Error[113]  : Symbol not previously defined (Breg)
Error[152]  : Executable code and data must be defined in an appropriate section
000000                00626                 CLRF    Breg
Error[152]  : Executable code and data must be defined in an appropriate section
MPASM  5.37                            UI.ASM   8-24-2010  6:19:47         PAGE 33


LOC  OBJECT CODE     LINE SOURCE TEXT
  VALUE

000000                00627                 MOVLW   0FF
Error[113]  : Symbol not previously defined (C)
Error[113]  : Symbol not previously defined (ALUSTA)
Error[152]  : Executable code and data must be defined in an appropriate section
000000                00628                 BTFSC   ALUSTA,C
Error[113]  : Symbol not previously defined (Breg)
Error[152]  : Executable code and data must be defined in an appropriate section
000000                00629                 MOVWF   Breg
                      00630         ; Test if option button has been pressed
                      00631         ; Carry flag set if pressed
Error[151]  : Operand contains unresolvable labels or is too complex
Error[152]  : Executable code and data must be defined in an appropriate section
Error[152]  : Executable code and data must be defined in an appropriate section
000000                00632                 CALL    CalSaveAndExit
Error[113]  : Symbol not previously defined (Option)
Error[152]  : Executable code and data must be defined in an appropriate section
Error[152]  : Executable code and data must be defined in an appropriate section
000000                00633                 CALL    Option
Error[113]  : Symbol not previously defined (C)
Error[113]  : Symbol not previously defined (ALUSTA)
Error[152]  : Executable code and data must be defined in an appropriate section
000000                00634                 BTFSS   ALUSTA,C
Error[151]  : Operand contains unresolvable labels or is too complex
Error[152]  : Executable code and data must be defined in an appropriate section
Error[152]  : Executable code and data must be defined in an appropriate section
000000                00635                 GOTO    AcceptLoop
                      00636         ; Set the carry flag on exit
Error[113]  : Symbol not previously defined (C)
Error[113]  : Symbol not previously defined (ALUSTA)
Error[152]  : Executable code and data must be defined in an appropriate section
000000                00637                 BCF     ALUSTA,C
Error[113]  : Symbol not previously defined (Breg)
Error[152]  : Executable code and data must be defined in an appropriate section
000000                00638                 BTFSC   Breg,0
Error[113]  : Symbol not previously defined (C)
Error[113]  : Symbol not previously defined (ALUSTA)
Error[152]  : Executable code and data must be defined in an appropriate section
000000                00639                 BSF     ALUSTA,C
Error[152]  : Executable code and data must be defined in an appropriate section
000000                00640                 RETURN
                      00641 
                      00642 ; This function displays Yes No on the second line of the
                      00643 ; LCD display, right justified. The Aileron stick is used to change from
                      00644 ; from Yes to No. The default entry is set by the carry flag
                      00645 ; when the function is called. The carry flag also defines the
                      00646 ; users selection:
                      00647 ;       C set for Yes
                      00648 ;       C clear for No
Error[150]  : Labels must be defined in a code or data section when making an object file
000000                00649 YesNo
                      00650         ; Set the flag in Areg
Error[113]  : Symbol not previously defined (Breg)
Error[113]  : Symbol not previously defined (A)
MPASM  5.37                            UI.ASM   8-24-2010  6:19:47         PAGE 34


LOC  OBJECT CODE     LINE SOURCE TEXT
  VALUE

Error[152]  : Executable code and data must be defined in an appropriate section
000000                00651                 CLRF    Breg,A
Error[113]  : Symbol not previously defined (C)
Error[113]  : Symbol not previously defined (ALUSTA)
Error[113]  : Symbol not previously defined (A)
Error[152]  : Executable code and data must be defined in an appropriate section
000000                00652                 BTFSC   ALUSTA,C,A
Error[113]  : Symbol not previously defined (Breg)
Error[113]  : Symbol not previously defined (A)
Error[152]  : Executable code and data must be defined in an appropriate section
000000                00653                 COMF    Breg,F,A
                      00654         ; Print the Yes No text...
Warning[207]: Found label after column 1. (CALLFL)
Error[122]  : Illegal opcode (LCDsendCMD)
                      00655                 CALLFL  LCDsendCMD,LINE2+YPOS
Warning[207]: Found label after column 1. (PrintMess)
Error[122]  : Illegal opcode (MES11)
                      00656                 PrintMess MES11
Error[150]  : Labels must be defined in a code or data section when making an object file
000000                00657 YesNoLoop
Error[113]  : Symbol not previously defined (Breg)
Error[113]  : Symbol not previously defined (A)
Error[152]  : Executable code and data must be defined in an appropriate section
000000                00658                 BTFSS   Breg,0,A
Error[151]  : Operand contains unresolvable labels or is too complex
Error[152]  : Executable code and data must be defined in an appropriate section
Error[152]  : Executable code and data must be defined in an appropriate section
000000                00659                 GOTO    YesNo1
                      00660         ; Highlight Yes
Warning[207]: Found label after column 1. (CALLFL)
Error[122]  : Illegal opcode (LCDsendCMD)
                      00661                 CALLFL  LCDsendCMD,LINE2+YPOS
Warning[207]: Found label after column 1. (CALLFL)
Error[122]  : Illegal opcode (LCDsendData)
                      00662                 CALLFL  LCDsendData,'('
Warning[207]: Found label after column 1. (CALLFL)
Error[122]  : Illegal opcode (LCDsendCMD)
                      00663                 CALLFL  LCDsendCMD,LINE2+YNPOS
Warning[207]: Found label after column 1. (CALLFL)
Error[122]  : Illegal opcode (LCDsendData)
                      00664                 CALLFL  LCDsendData,')'
Warning[207]: Found label after column 1. (CALLFL)
Error[122]  : Illegal opcode (LCDsendCMD)
                      00665                 CALLFL  LCDsendCMD,LINE2+NPOS
Warning[207]: Found label after column 1. (CALLFL)
Error[122]  : Illegal opcode (LCDsendData)
                      00666                 CALLFL  LCDsendData,' '
Error[151]  : Operand contains unresolvable labels or is too complex
Error[152]  : Executable code and data must be defined in an appropriate section
Error[152]  : Executable code and data must be defined in an appropriate section
000000                00667                 GOTO    YesNo2
Error[150]  : Labels must be defined in a code or data section when making an object file
000000                00668 YesNo1
MPASM  5.37                            UI.ASM   8-24-2010  6:19:47         PAGE 35


LOC  OBJECT CODE     LINE SOURCE TEXT
  VALUE

                      00669         ; Highlight No
Warning[207]: Found label after column 1. (CALLFL)
Error[122]  : Illegal opcode (LCDsendCMD)
                      00670                 CALLFL  LCDsendCMD,LINE2+YPOS
Warning[207]: Found label after column 1. (CALLFL)
Error[122]  : Illegal opcode (LCDsendData)
                      00671                 CALLFL  LCDsendData,' '
Warning[207]: Found label after column 1. (CALLFL)
Error[122]  : Illegal opcode (LCDsendCMD)
                      00672                 CALLFL  LCDsendCMD,LINE2+YNPOS
Warning[207]: Found label after column 1. (CALLFL)
Error[122]  : Illegal opcode (LCDsendData)
                      00673                 CALLFL  LCDsendData,'('
Warning[207]: Found label after column 1. (CALLFL)
Error[122]  : Illegal opcode (LCDsendCMD)
                      00674                 CALLFL  LCDsendCMD,LINE2+NPOS
Warning[207]: Found label after column 1. (CALLFL)
Error[122]  : Illegal opcode (LCDsendData)
                      00675                 CALLFL  LCDsendData,')'
Error[150]  : Labels must be defined in a code or data section when making an object file
000000                00676 YesNo2
                      00677         ; Call Aileron position test....
                      00678         ;   Z flag set if Right
                      00679         ;   C flag set if Left
Error[151]  : Operand contains unresolvable labels or is too complex
Error[152]  : Executable code and data must be defined in an appropriate section
Error[152]  : Executable code and data must be defined in an appropriate section
000000                00680                 CALL    Aileron
Error[113]  : Symbol not previously defined (Z)
Error[113]  : Symbol not previously defined (ALUSTA)
Error[113]  : Symbol not previously defined (A)
Error[152]  : Executable code and data must be defined in an appropriate section
000000                00681                 BTFSC   ALUSTA,Z,A
Error[113]  : Symbol not previously defined (Breg)
Error[113]  : Symbol not previously defined (A)
Error[152]  : Executable code and data must be defined in an appropriate section
000000                00682                 CLRF    Breg,A
Error[152]  : Executable code and data must be defined in an appropriate section
000000                00683                 MOVLW   0FF
Error[113]  : Symbol not previously defined (C)
Error[113]  : Symbol not previously defined (ALUSTA)
Error[113]  : Symbol not previously defined (A)
Error[152]  : Executable code and data must be defined in an appropriate section
000000                00684                 BTFSC   ALUSTA,C,A
Error[113]  : Symbol not previously defined (Breg)
Error[113]  : Symbol not previously defined (A)
Error[152]  : Executable code and data must be defined in an appropriate section
000000                00685                 MOVWF   Breg,A
                      00686         ; Test if option button has been pressed
                      00687         ; Carry flag set if pressed
Error[151]  : Operand contains unresolvable labels or is too complex
Error[152]  : Executable code and data must be defined in an appropriate section
Error[152]  : Executable code and data must be defined in an appropriate section
MPASM  5.37                            UI.ASM   8-24-2010  6:19:47         PAGE 36


LOC  OBJECT CODE     LINE SOURCE TEXT
  VALUE

000000                00688                 CALL    CalSaveAndExit
Error[113]  : Symbol not previously defined (Option)
Error[152]  : Executable code and data must be defined in an appropriate section
Error[152]  : Executable code and data must be defined in an appropriate section
000000                00689                 CALL    Option
Error[113]  : Symbol not previously defined (C)
Error[113]  : Symbol not previously defined (ALUSTA)
Error[113]  : Symbol not previously defined (A)
Error[152]  : Executable code and data must be defined in an appropriate section
000000                00690                 BTFSS   ALUSTA,C,A
Error[151]  : Operand contains unresolvable labels or is too complex
Error[152]  : Executable code and data must be defined in an appropriate section
Error[152]  : Executable code and data must be defined in an appropriate section
000000                00691                 GOTO    YesNoLoop
                      00692         ; Set the carry flag on exit
Error[113]  : Symbol not previously defined (C)
Error[113]  : Symbol not previously defined (ALUSTA)
Error[113]  : Symbol not previously defined (A)
Error[152]  : Executable code and data must be defined in an appropriate section
000000                00693                 BCF     ALUSTA,C,A
Error[113]  : Symbol not previously defined (Breg)
Error[113]  : Symbol not previously defined (A)
Error[152]  : Executable code and data must be defined in an appropriate section
000000                00694                 BTFSC   Breg,0,A
Error[113]  : Symbol not previously defined (C)
Error[113]  : Symbol not previously defined (ALUSTA)
Error[113]  : Symbol not previously defined (A)
Error[152]  : Executable code and data must be defined in an appropriate section
000000                00695                 BSF     ALUSTA,C,A
Error[152]  : Executable code and data must be defined in an appropriate section
000000                00696                 RETURN
                      00697 
                      00698 
                      00699 ; This function tests value in WREG against the limts in MaxByte and
                      00700 ; MinByte. If its outside of this range, the value is set to the nearest
                      00701 ; limit.
Error[150]  : Labels must be defined in a code or data section when making an object file
000000                00702 Limit8
                      00703         ; Test the MaxByte limit
Error[113]  : Symbol not previously defined (MaxByte)
Error[152]  : Executable code and data must be defined in an appropriate section
000000                00704                 MOVLB   HIGH MaxByte
Error[113]  : Symbol not previously defined (MaxByte)
Error[152]  : Executable code and data must be defined in an appropriate section
000000                00705                 CPFSGT  MaxByte
Error[113]  : Symbol not previously defined (MaxByte)
Error[152]  : Executable code and data must be defined in an appropriate section
000000                00706                 MOVF    MaxByte,W
Error[113]  : Symbol not previously defined (MinByte)
Error[152]  : Executable code and data must be defined in an appropriate section
000000                00707                 CPFSLT  MinByte
Error[113]  : Symbol not previously defined (MinByte)
Error[152]  : Executable code and data must be defined in an appropriate section
MPASM  5.37                            UI.ASM   8-24-2010  6:19:47         PAGE 37


LOC  OBJECT CODE     LINE SOURCE TEXT
  VALUE

000000                00708                 MOVF    MinByte,W
Error[152]  : Executable code and data must be defined in an appropriate section
000000                00709                 RETURN
                      00710 
                      00711 
                      00712 ;==============================================================================
                      00713 ;
                      00714 ; Function: ADJbyte, ADJvolt
                      00715 ;
                      00716 ; Purpose:
                      00717 ;    This function allows the user to adjust the value of a byte variable.
                      00718 ;    The minimum and maximum values allowed are defined in MinByte and MaxByte.
                      00719 ;    The Byte that will be adjusted in in WREG, and is also returned in WREG.
                      00720 ;    The elevator stick is used to adjust the value, pressing the option
                      00721 ;    button will accept the new value and cause this routine to exit.
                      00722 ;
                      00723 ; Inputs:
                      00724 ;    Wreg    = value to adjust
                      00725 ;    MinByte = lower limit
                      00726 ;    MaxByte = upper limit
                      00727 ;
                      00728 ; Outputs:
                      00729 ;    Wreg = adjusted value
                      00730 ;
                      00731 ; Uses:
                      00732 ;    Ctemp
                      00733 ;    CEXreg
                      00734 ;
                      00735 ; Calls:
                      00736 ;    Int2Str
                      00737 ;    LCDsendCMD
                      00738 ;    LCDsendData
                      00739 ;    Elevator
                      00740 ;    Option
                      00741 ;
                      00742 ;==============================================================================
Error[150]  : Labels must be defined in a code or data section when making an object file
000000                00743 ADJvolt
                      00744         ; This is a second entry point into ADJbyte. This will set a 
                      00745         ; decimal point in the displayed result. This entry point sets
                      00746         ; the DP flag.
Error[113]  : Symbol not previously defined (DPflag)
Error[152]  : Executable code and data must be defined in an appropriate section
000000                00747                 MOVLB   HIGH DPflag
Error[113]  : Symbol not previously defined (DPflag)
Error[152]  : Executable code and data must be defined in an appropriate section
000000                00748                 SETF    DPflag
                      00749         ; First save WREG in Ctemp
Error[113]  : Symbol not previously defined (Ctemp)
Error[152]  : Executable code and data must be defined in an appropriate section
000000                00750                 MOVLB   HIGH Ctemp
Error[113]  : Symbol not previously defined (Ctemp)
Error[152]  : Executable code and data must be defined in an appropriate section
MPASM  5.37                            UI.ASM   8-24-2010  6:19:47         PAGE 38


LOC  OBJECT CODE     LINE SOURCE TEXT
  VALUE

000000                00751                 MOVWF   Ctemp
Error[151]  : Operand contains unresolvable labels or is too complex
Error[152]  : Executable code and data must be defined in an appropriate section
Error[152]  : Executable code and data must be defined in an appropriate section
000000                00752                 GOTO    ADJbyteloop
Error[150]  : Labels must be defined in a code or data section when making an object file
000000                00753 ADJbyte
                      00754         ; First save WREG in Ctemp
Error[113]  : Symbol not previously defined (Ctemp)
Error[152]  : Executable code and data must be defined in an appropriate section
000000                00755                 MOVLB   HIGH Ctemp
Error[113]  : Symbol not previously defined (Ctemp)
Error[152]  : Executable code and data must be defined in an appropriate section
000000                00756                 MOVWF   Ctemp
                      00757         ; Clear the decimal point flag
Error[113]  : Symbol not previously defined (DPflag)
Error[152]  : Executable code and data must be defined in an appropriate section
000000                00758                 MOVLB   HIGH DPflag
Error[113]  : Symbol not previously defined (DPflag)
Error[152]  : Executable code and data must be defined in an appropriate section
000000                00759                 CLRF    DPflag
                      00760         ; Convert Breg to string
Error[150]  : Labels must be defined in a code or data section when making an object file
000000                00761 ADJbyteloop
Warning[207]: Found label after column 1. (CALLFL)
Error[122]  : Illegal opcode (Delay1mS)
000000                00762                 CALLFL  Delay1mS,D'150'
Error[113]  : Symbol not previously defined (Ctemp)
Error[152]  : Executable code and data must be defined in an appropriate section
Error[113]  : Symbol not previously defined (WREG)
Error[152]  : Executable code and data must be defined in an appropriate section
000000                00763                 MOVFF   Ctemp,WREG
                      00764                 ; Save in CEXreg
Error[113]  : Symbol not previously defined (CEXreg)
Error[152]  : Executable code and data must be defined in an appropriate section
000000                00765                 MOVLB   HIGH CEXreg
Error[113]  : Symbol not previously defined (CEXreg)
Error[152]  : Executable code and data must be defined in an appropriate section
000000                00766                 MOVWF   CEXreg
Error[113]  : Symbol not previously defined (CEXreg)
Error[152]  : Executable code and data must be defined in an appropriate section
000000                00767                 CLRF    CEXreg+1
Error[113]  : Symbol not previously defined (CEXreg)
Error[152]  : Executable code and data must be defined in an appropriate section
000000                00768                 CLRF    CEXreg+2
Error[113]  : Symbol not previously defined (CEXreg)
Error[152]  : Executable code and data must be defined in an appropriate section
000000                00769                 CLRF    CEXreg+3
                      00770                 ; Make into a string...
Error[113]  : Symbol not previously defined (Int2Str)
Error[152]  : Executable code and data must be defined in an appropriate section
Error[152]  : Executable code and data must be defined in an appropriate section
000000                00771                 CALL    Int2Str
MPASM  5.37                            UI.ASM   8-24-2010  6:19:47         PAGE 39


LOC  OBJECT CODE     LINE SOURCE TEXT
  VALUE

                      00772                 ; Test the DP flag and display results
Error[113]  : Symbol not previously defined (DPflag)
Error[152]  : Executable code and data must be defined in an appropriate section
000000                00773                 MOVLB   HIGH DPflag
Error[113]  : Symbol not previously defined (DPflag)
Error[152]  : Executable code and data must be defined in an appropriate section
000000                00774                 TSTFSZ  DPflag
Error[151]  : Operand contains unresolvable labels or is too complex
Error[152]  : Executable code and data must be defined in an appropriate section
Error[152]  : Executable code and data must be defined in an appropriate section
000000                00775                 GOTO    ShowDP
                      00776                 ; Position and print...
Warning[207]: Found label after column 1. (CALLFL)
Error[122]  : Illegal opcode (LCDsendCMD)
                      00777                 CALLFL  LCDsendCMD,LINE2+BYTEPOS
Warning[207]: Found label after column 1. (CALLFF)
Error[122]  : Illegal opcode (LCDsendData)
                      00778                 CALLFF  LCDsendData,Buffer+2
Warning[207]: Found label after column 1. (CALLFF)
Error[122]  : Illegal opcode (LCDsendData)
                      00779                 CALLFF  LCDsendData,Buffer+3
Warning[207]: Found label after column 1. (CALLFF)
Error[122]  : Illegal opcode (LCDsendData)
                      00780                 CALLFF  LCDsendData,Buffer+4
Error[151]  : Operand contains unresolvable labels or is too complex
Error[152]  : Executable code and data must be defined in an appropriate section
Error[152]  : Executable code and data must be defined in an appropriate section
000000                00781                 GOTO    ADJbyte2
                      00782                 ; Here to display the decimal point
Error[150]  : Labels must be defined in a code or data section when making an object file
000000                00783 ShowDP
Warning[207]: Found label after column 1. (CALLFL)
Error[122]  : Illegal opcode (LCDsendCMD)
000000                00784                 CALLFL  LCDsendCMD,LINE2+BYTEPOS-1
Warning[207]: Found label after column 1. (CALLFF)
Error[122]  : Illegal opcode (LCDsendData)
000000                00785                 CALLFF  LCDsendData,Buffer+2
Warning[207]: Found label after column 1. (CALLFF)
Error[122]  : Illegal opcode (LCDsendData)
000000                00786                 CALLFF  LCDsendData,Buffer+3
Warning[207]: Found label after column 1. (CALLFL)
Error[122]  : Illegal opcode (LCDsendData)
000000                00787                 CALLFL  LCDsendData,'.'         
Warning[207]: Found label after column 1. (CALLFF)
Error[122]  : Illegal opcode (LCDsendData)
000000                00788                 CALLFF  LCDsendData,Buffer+4
                      00789         ; Test the elevator stick
Error[150]  : Labels must be defined in a code or data section when making an object file
000000                00790 ADJbyte2
Error[151]  : Operand contains unresolvable labels or is too complex
Error[152]  : Executable code and data must be defined in an appropriate section
Error[152]  : Executable code and data must be defined in an appropriate section
000000                00791                 CALL    Elevator
MPASM  5.37                            UI.ASM   8-24-2010  6:19:47         PAGE 40


LOC  OBJECT CODE     LINE SOURCE TEXT
  VALUE

Error[113]  : Symbol not previously defined (Ctemp)
Error[152]  : Executable code and data must be defined in an appropriate section
000000                00792                 MOVLB   HIGH Ctemp
Error[113]  : Symbol not previously defined (Z)
Error[113]  : Symbol not previously defined (ALUSTA)
Error[152]  : Executable code and data must be defined in an appropriate section
000000                00793                 BTFSS   ALUSTA,Z
Error[151]  : Operand contains unresolvable labels or is too complex
Error[152]  : Executable code and data must be defined in an appropriate section
Error[152]  : Executable code and data must be defined in an appropriate section
000000                00794                 GOTO    ADJbyte1
Error[113]  : Symbol not previously defined (Ctemp)
Error[152]  : Executable code and data must be defined in an appropriate section
000000                00795                 INCF    Ctemp
                      00796                 ; Test if its greater than MaxByte
Error[113]  : Symbol not previously defined (MaxByte)
Error[152]  : Executable code and data must be defined in an appropriate section
Error[113]  : Symbol not previously defined (WREG)
Error[152]  : Executable code and data must be defined in an appropriate section
000000                00797                 MOVFF   MaxByte,WREG
Error[113]  : Symbol not previously defined (Ctemp)
Error[152]  : Executable code and data must be defined in an appropriate section
000000                00798                 CPFSLT  Ctemp
Error[113]  : Symbol not previously defined (Ctemp)
Error[152]  : Executable code and data must be defined in an appropriate section
000000                00799                 MOVWF   Ctemp           
Error[113]  : Symbol not previously defined (Ctemp)
Error[152]  : Executable code and data must be defined in an appropriate section
000000                00800                 TSTFSZ  Ctemp
Error[151]  : Operand contains unresolvable labels or is too complex
Error[152]  : Executable code and data must be defined in an appropriate section
Error[152]  : Executable code and data must be defined in an appropriate section
000000                00801                 GOTO    ADJbyte3
Error[113]  : Symbol not previously defined (Ctemp)
Error[152]  : Executable code and data must be defined in an appropriate section
000000                00802                 MOVWF   Ctemp           
Error[151]  : Operand contains unresolvable labels or is too complex
Error[152]  : Executable code and data must be defined in an appropriate section
Error[152]  : Executable code and data must be defined in an appropriate section
000000                00803                 GOTO    ADJbyte3
                      00804 
Error[150]  : Labels must be defined in a code or data section when making an object file
000000                00805 ADJbyte1
Error[113]  : Symbol not previously defined (C)
Error[113]  : Symbol not previously defined (ALUSTA)
Error[152]  : Executable code and data must be defined in an appropriate section
000000                00806                 BTFSS   ALUSTA,C
Error[151]  : Operand contains unresolvable labels or is too complex
Error[152]  : Executable code and data must be defined in an appropriate section
Error[152]  : Executable code and data must be defined in an appropriate section
000000                00807                 GOTO    ADJbyte3
Error[113]  : Symbol not previously defined (Ctemp)
Error[152]  : Executable code and data must be defined in an appropriate section
MPASM  5.37                            UI.ASM   8-24-2010  6:19:47         PAGE 41


LOC  OBJECT CODE     LINE SOURCE TEXT
  VALUE

Error[113]  : Symbol not previously defined (WREG)
Error[152]  : Executable code and data must be defined in an appropriate section
000000                00808                 MOVFF   Ctemp,WREG
Error[113]  : Symbol not previously defined (MinByte)
Error[152]  : Executable code and data must be defined in an appropriate section
000000                00809                 CPFSLT  MinByte
Error[151]  : Operand contains unresolvable labels or is too complex
Error[152]  : Executable code and data must be defined in an appropriate section
Error[152]  : Executable code and data must be defined in an appropriate section
000000                00810                 GOTO    ADJbyte3
Error[113]  : Symbol not previously defined (Ctemp)
Error[152]  : Executable code and data must be defined in an appropriate section
000000                00811                 DECF    Ctemp
                      00812                 ; Test if its less that than MinByte
Error[113]  : Symbol not previously defined (MinByte)
Error[152]  : Executable code and data must be defined in an appropriate section
Error[113]  : Symbol not previously defined (WREG)
Error[152]  : Executable code and data must be defined in an appropriate section
000000                00813                 MOVFF   MinByte,WREG
Error[113]  : Symbol not previously defined (Ctemp)
Error[152]  : Executable code and data must be defined in an appropriate section
000000                00814                 CPFSGT  Ctemp
Error[113]  : Symbol not previously defined (Ctemp)
Error[152]  : Executable code and data must be defined in an appropriate section
000000                00815                 MOVWF   Ctemp           
                      00816         ; Test for the option button to indicate we exit
Error[150]  : Labels must be defined in a code or data section when making an object file
000000                00817 ADJbyte3
Error[151]  : Operand contains unresolvable labels or is too complex
Error[152]  : Executable code and data must be defined in an appropriate section
Error[152]  : Executable code and data must be defined in an appropriate section
000000                00818                 CALL    CalSaveAndExit
Error[113]  : Symbol not previously defined (Option)
Error[152]  : Executable code and data must be defined in an appropriate section
Error[152]  : Executable code and data must be defined in an appropriate section
000000                00819                 CALL    Option
Error[113]  : Symbol not previously defined (C)
Error[113]  : Symbol not previously defined (ALUSTA)
Error[152]  : Executable code and data must be defined in an appropriate section
000000                00820                 BTFSS   ALUSTA,C
Error[151]  : Operand contains unresolvable labels or is too complex
Error[152]  : Executable code and data must be defined in an appropriate section
Error[152]  : Executable code and data must be defined in an appropriate section
000000                00821                 GOTO    ADJbyteloop
Error[113]  : Symbol not previously defined (Ctemp)
Error[152]  : Executable code and data must be defined in an appropriate section
000000                00822                 MOVLB   HIGH Ctemp
Error[113]  : Symbol not previously defined (Ctemp)
Error[152]  : Executable code and data must be defined in an appropriate section
Error[113]  : Symbol not previously defined (WREG)
Error[152]  : Executable code and data must be defined in an appropriate section
000000                00823                 MOVFF   Ctemp,WREG
Error[152]  : Executable code and data must be defined in an appropriate section
MPASM  5.37                            UI.ASM   8-24-2010  6:19:47         PAGE 42


LOC  OBJECT CODE     LINE SOURCE TEXT
  VALUE

000000                00824                 RETURN
                      00825                 
                      00826 ; This function will display the signed percentage in INDF1 and allow
                      00827 ; the pilot to adjust the value using the elevator stick. The result
                      00828 ; is returned in WREG
Error[150]  : Labels must be defined in a code or data section when making an object file
000000                00829 ADJpercent
Error[151]  : Operand contains unresolvable labels or is too complex
Error[152]  : Executable code and data must be defined in an appropriate section
Error[152]  : Executable code and data must be defined in an appropriate section
000000                00830                 CALL    CalModeProcess
Error[113]  : Symbol not previously defined (IncTime)
Error[152]  : Executable code and data must be defined in an appropriate section
Error[113]  : Symbol not previously defined (WREG)
Error[152]  : Executable code and data must be defined in an appropriate section
000000                00831                 MOVFF   IncTime,WREG
Error[152]  : Executable code and data must be defined in an appropriate section
000000                00832                 SUBLW   D'127'
Error[113]  : Symbol not previously defined (WREG)
Error[113]  : Symbol not previously defined (A)
Error[152]  : Executable code and data must be defined in an appropriate section
000000                00833                 BTFSC   WREG,7,A
Error[113]  : Symbol not previously defined (WREG)
Error[113]  : Symbol not previously defined (A)
Error[152]  : Executable code and data must be defined in an appropriate section
000000                00834                 CLRF    WREG,A
Error[113]  : Symbol not previously defined (WREG)
Error[152]  : Executable code and data must be defined in an appropriate section
000000                00835                 RLNCF   WREG
Error[113]  : Symbol not previously defined (WREG)
Error[113]  : Symbol not previously defined (A)
Error[152]  : Executable code and data must be defined in an appropriate section
000000                00836                 TSTFSZ  WREG,A
Error[113]  : Symbol not previously defined (Delay1mS)
Error[152]  : Executable code and data must be defined in an appropriate section
Error[152]  : Executable code and data must be defined in an appropriate section
000000                00837                 CALL    Delay1mS
                      00838 ;               CALLFL  Delay1mS,D'250'
Error[113]  : Symbol not previously defined (INDF1)
Error[152]  : Executable code and data must be defined in an appropriate section
Error[113]  : Symbol not previously defined (WREG)
Error[152]  : Executable code and data must be defined in an appropriate section
000000                00839                 MOVFF   INDF1,WREG
Error[113]  : Symbol not previously defined (INDF1)
Error[152]  : Executable code and data must be defined in an appropriate section
000000                00840                 BTFSC   INDF1,7
Error[113]  : Symbol not previously defined (WREG)
Error[152]  : Executable code and data must be defined in an appropriate section
000000                00841                 COMF    WREG
Error[113]  : Symbol not previously defined (INDF1)
Error[152]  : Executable code and data must be defined in an appropriate section
000000                00842                 BTFSC   INDF1,7
Error[113]  : Symbol not previously defined (WREG)
MPASM  5.37                            UI.ASM   8-24-2010  6:19:47         PAGE 43


LOC  OBJECT CODE     LINE SOURCE TEXT
  VALUE

Error[152]  : Executable code and data must be defined in an appropriate section
000000                00843                 INCF    WREG
                      00844                 ; Save in CEXreg
Error[113]  : Symbol not previously defined (CEXreg)
Error[152]  : Executable code and data must be defined in an appropriate section
000000                00845                 MOVLB   HIGH CEXreg
Error[113]  : Symbol not previously defined (CEXreg)
Error[152]  : Executable code and data must be defined in an appropriate section
000000                00846                 MOVWF   CEXreg
Error[113]  : Symbol not previously defined (CEXreg)
Error[152]  : Executable code and data must be defined in an appropriate section
000000                00847                 CLRF    CEXreg+1
Error[113]  : Symbol not previously defined (CEXreg)
Error[152]  : Executable code and data must be defined in an appropriate section
000000                00848                 CLRF    CEXreg+2
Error[113]  : Symbol not previously defined (CEXreg)
Error[152]  : Executable code and data must be defined in an appropriate section
000000                00849                 CLRF    CEXreg+3
                      00850                 ; Make into a string...
Error[113]  : Symbol not previously defined (Int2Str)
Error[152]  : Executable code and data must be defined in an appropriate section
Error[152]  : Executable code and data must be defined in an appropriate section
000000                00851                 CALL    Int2Str
                      00852                 ; Position the print position and print...
Warning[207]: Found label after column 1. (CALLFL)
Error[122]  : Illegal opcode (LCDsendCMD)
                      00853                 CALLFL  LCDsendCMD,LINE2+PERCENTPOS
Error[152]  : Executable code and data must be defined in an appropriate section
000000                00854                 MOVLW   ' '
Error[113]  : Symbol not previously defined (INDF1)
Error[152]  : Executable code and data must be defined in an appropriate section
000000                00855                 BTFSC   INDF1,7
Error[152]  : Executable code and data must be defined in an appropriate section
000000                00856                 MOVLW   '-'
Warning[207]: Found label after column 1. (CALLFW)
Error[122]  : Illegal opcode (LCDsendData)
000000                00857                 CALLFW  LCDsendData
Warning[207]: Found label after column 1. (CALLFF)
Error[122]  : Illegal opcode (LCDsendData)
000000                00858                 CALLFF  LCDsendData,Buffer+2
Warning[207]: Found label after column 1. (CALLFF)
Error[122]  : Illegal opcode (LCDsendData)
000000                00859                 CALLFF  LCDsendData,Buffer+3
Warning[207]: Found label after column 1. (CALLFF)
Error[122]  : Illegal opcode (LCDsendData)
000000                00860                 CALLFF  LCDsendData,Buffer+4
Error[113]  : Symbol not previously defined (Units)
Error[152]  : Executable code and data must be defined in an appropriate section
Error[113]  : Symbol not previously defined (WREG)
Error[152]  : Executable code and data must be defined in an appropriate section
000000                00861                 MOVFF   Units,WREG
Warning[207]: Found label after column 1. (CALLFW)
Error[122]  : Illegal opcode (LCDsendData)
MPASM  5.37                            UI.ASM   8-24-2010  6:19:47         PAGE 44


LOC  OBJECT CODE     LINE SOURCE TEXT
  VALUE

000000                00862                 CALLFW  LCDsendData
                      00863         ; Test the elevator stick
Error[150]  : Labels must be defined in a code or data section when making an object file
000000                00864 ADJ2
Error[151]  : Operand contains unresolvable labels or is too complex
Error[152]  : Executable code and data must be defined in an appropriate section
Error[152]  : Executable code and data must be defined in an appropriate section
000000                00865                 CALL    Elevator
Error[113]  : Symbol not previously defined (Ctemp)
Error[152]  : Executable code and data must be defined in an appropriate section
000000                00866                 MOVLB   HIGH Ctemp
Error[113]  : Symbol not previously defined (Z)
Error[113]  : Symbol not previously defined (ALUSTA)
Error[152]  : Executable code and data must be defined in an appropriate section
000000                00867                 BTFSS   ALUSTA,Z
Error[151]  : Operand contains unresolvable labels or is too complex
Error[152]  : Executable code and data must be defined in an appropriate section
Error[152]  : Executable code and data must be defined in an appropriate section
000000                00868                 GOTO    ADJ1
Error[113]  : Symbol not previously defined (INDF1)
Error[152]  : Executable code and data must be defined in an appropriate section
000000                00869                 INCF    INDF1           
Error[151]  : Operand contains unresolvable labels or is too complex
Error[152]  : Executable code and data must be defined in an appropriate section
Error[152]  : Executable code and data must be defined in an appropriate section
000000                00870                 GOTO    ADJ3
Error[150]  : Labels must be defined in a code or data section when making an object file
000000                00871 ADJ1
Error[113]  : Symbol not previously defined (C)
Error[113]  : Symbol not previously defined (ALUSTA)
Error[152]  : Executable code and data must be defined in an appropriate section
000000                00872                 BTFSS   ALUSTA,C
Error[151]  : Operand contains unresolvable labels or is too complex
Error[152]  : Executable code and data must be defined in an appropriate section
Error[152]  : Executable code and data must be defined in an appropriate section
000000                00873                 GOTO    ADJ3
Error[113]  : Symbol not previously defined (INDF1)
Error[152]  : Executable code and data must be defined in an appropriate section
000000                00874                 DECF    INDF1
                      00875         ; Test for the option button to indicate we exit
Error[150]  : Labels must be defined in a code or data section when making an object file
000000                00876 ADJ3
Error[151]  : Operand contains unresolvable labels or is too complex
Error[152]  : Executable code and data must be defined in an appropriate section
Error[152]  : Executable code and data must be defined in an appropriate section
000000                00877                 CALL    CalSaveAndExit
Error[113]  : Symbol not previously defined (Option)
Error[152]  : Executable code and data must be defined in an appropriate section
Error[152]  : Executable code and data must be defined in an appropriate section
000000                00878                 CALL    Option
Error[113]  : Symbol not previously defined (C)
Error[113]  : Symbol not previously defined (ALUSTA)
Error[152]  : Executable code and data must be defined in an appropriate section
MPASM  5.37                            UI.ASM   8-24-2010  6:19:47         PAGE 45


LOC  OBJECT CODE     LINE SOURCE TEXT
  VALUE

000000                00879                 BTFSS   ALUSTA,C
Error[151]  : Operand contains unresolvable labels or is too complex
Error[152]  : Executable code and data must be defined in an appropriate section
Error[152]  : Executable code and data must be defined in an appropriate section
000000                00880                 GOTO    ADJpercent
                      00881         ; Clear the update flag if set 
Error[113]  : Symbol not previously defined (CalServoUpdate)
Error[152]  : Executable code and data must be defined in an appropriate section
000000                00882                 MOVLB   HIGH CalServoUpdate
Error[113]  : Symbol not previously defined (CalServoUpdate)
Error[152]  : Executable code and data must be defined in an appropriate section
000000                00883                 CLRF    CalServoUpdate
Error[152]  : Executable code and data must be defined in an appropriate section
000000                00884                 RETURN
                      00885 
                      00886 ; This function tests the value in CXreg against the MinTime and
                      00887 ; MaxTime limites. If the value is outside of this range it will
                      00888 ; be set to the nearest limit.
Error[150]  : Labels must be defined in a code or data section when making an object file
000000                00889 Limit16
                      00890         ; Test the MaxTime Limit
Error[113]  : Symbol not previously defined (CXreg)
Error[152]  : Executable code and data must be defined in an appropriate section
000000                00891                 MOVLB   HIGH CXreg
Error[113]  : Symbol not previously defined (CXreg)
Error[152]  : Executable code and data must be defined in an appropriate section
000000                00892                 MOVF    CXreg,W
Error[113]  : Symbol not previously defined (MaxTime)
Error[152]  : Executable code and data must be defined in an appropriate section
000000                00893                 SUBWF   MaxTime,W
Error[113]  : Symbol not previously defined (CXreg)
Error[152]  : Executable code and data must be defined in an appropriate section
000000                00894                 MOVF    CXreg+1,W
Error[113]  : Symbol not previously defined (MaxTime)
Error[152]  : Executable code and data must be defined in an appropriate section
000000                00895                 SUBWFB  MaxTime+1,W
                      00896                 ; Test flag, set to max and exit if its over the limit
Error[113]  : Symbol not previously defined (C)
Error[113]  : Symbol not previously defined (ALUSTA)
Error[152]  : Executable code and data must be defined in an appropriate section
000000                00897                 BTFSC   ALUSTA,C
Error[151]  : Operand contains unresolvable labels or is too complex
Error[152]  : Executable code and data must be defined in an appropriate section
Error[152]  : Executable code and data must be defined in an appropriate section
000000                00898                 GOTO    Limit16a
Error[113]  : Symbol not previously defined (MaxTime)
Error[152]  : Executable code and data must be defined in an appropriate section
000000                00899                 MOVF    MaxTime,W
Error[113]  : Symbol not previously defined (CXreg)
Error[152]  : Executable code and data must be defined in an appropriate section
000000                00900                 MOVWF   CXreg
Error[113]  : Symbol not previously defined (MaxTime)
Error[152]  : Executable code and data must be defined in an appropriate section
MPASM  5.37                            UI.ASM   8-24-2010  6:19:47         PAGE 46


LOC  OBJECT CODE     LINE SOURCE TEXT
  VALUE

000000                00901                 MOVF    MaxTime+1,W
Error[113]  : Symbol not previously defined (CXreg)
Error[152]  : Executable code and data must be defined in an appropriate section
000000                00902                 MOVWF   CXreg+1
Error[152]  : Executable code and data must be defined in an appropriate section
000000                00903                 RETURN
Error[150]  : Labels must be defined in a code or data section when making an object file
000000                00904 Limit16a
                      00905         ; The the MinTime Limit
Error[113]  : Symbol not previously defined (MinTime)
Error[152]  : Executable code and data must be defined in an appropriate section
000000                00906                 MOVF    MinTime,W
Error[113]  : Symbol not previously defined (CXreg)
Error[152]  : Executable code and data must be defined in an appropriate section
000000                00907                 SUBWF   CXreg,W
Error[113]  : Symbol not previously defined (MinTime)
Error[152]  : Executable code and data must be defined in an appropriate section
000000                00908                 MOVF    MinTime+1,W
Error[113]  : Symbol not previously defined (CXreg)
Error[152]  : Executable code and data must be defined in an appropriate section
000000                00909                 SUBWFB  CXreg+1,W
                      00910                 ; Test flag, set to min and exit if its under the limit
Error[113]  : Symbol not previously defined (C)
Error[113]  : Symbol not previously defined (ALUSTA)
Error[152]  : Executable code and data must be defined in an appropriate section
000000                00911                 BTFSC   ALUSTA,C
Error[151]  : Operand contains unresolvable labels or is too complex
Error[152]  : Executable code and data must be defined in an appropriate section
Error[152]  : Executable code and data must be defined in an appropriate section
000000                00912                 GOTO    Limit16b
Error[113]  : Symbol not previously defined (MinTime)
Error[152]  : Executable code and data must be defined in an appropriate section
000000                00913                 MOVF    MinTime,W
Error[113]  : Symbol not previously defined (CXreg)
Error[152]  : Executable code and data must be defined in an appropriate section
000000                00914                 MOVWF   CXreg
Error[113]  : Symbol not previously defined (MinTime)
Error[152]  : Executable code and data must be defined in an appropriate section
000000                00915                 MOVF    MinTime+1,W
Error[113]  : Symbol not previously defined (CXreg)
Error[152]  : Executable code and data must be defined in an appropriate section
000000                00916                 MOVWF   CXreg+1
Error[150]  : Labels must be defined in a code or data section when making an object file
000000                00917 Limit16b                
Error[152]  : Executable code and data must be defined in an appropriate section
000000                00918                 RETURN
                      00919                 
                      00920 ; This function allows the pilot to adjust the millisec
                      00921 ; value saved in CXreg. This is an unsigned value and its
                      00922 ; limited to MinTime and MaxTime. The value is displayed in millisec.
                      00923 ; This function does not allow you to adjust outside of this
                      00924 ; range. The values is range tested and adjusted to
                      00925 ; a valid limit.
MPASM  5.37                            UI.ASM   8-24-2010  6:19:47         PAGE 47


LOC  OBJECT CODE     LINE SOURCE TEXT
  VALUE

                      00926 ; The units are in .5 uS, so a time of 1 millisec = 2000
                      00927 ;
                      00928 ; CXreg contains the 16 bit time value.
Error[150]  : Labels must be defined in a code or data section when making an object file
000000                00929 ADJuS
Error[151]  : Operand contains unresolvable labels or is too complex
Error[152]  : Executable code and data must be defined in an appropriate section
Error[152]  : Executable code and data must be defined in an appropriate section
000000                00930                 CALL    Limit16
Error[113]  : Symbol not previously defined (SymSet)
Error[152]  : Executable code and data must be defined in an appropriate section
000000                00931                 MOVLB   HIGH SymSet
Error[113]  : Symbol not previously defined (SymSet)
Error[152]  : Executable code and data must be defined in an appropriate section
000000                00932                 CLRF    SymSet
Error[150]  : Labels must be defined in a code or data section when making an object file
000000                00933 ADJuSz  
                      00934         ; If the DriveCh flag is non zero, then it points
                      00935         ; to the channel times array point into witch to write
                      00936         ; this position. 
Error[113]  : Symbol not previously defined (DriveCh)
Error[152]  : Executable code and data must be defined in an appropriate section
000000                00937                 MOVLB   HIGH DriveCh
Error[113]  : Symbol not previously defined (DriveCh)
Error[152]  : Executable code and data must be defined in an appropriate section
000000                00938                 MOVF    DriveCh,W
Error[113]  : Symbol not previously defined (WREG)
Error[152]  : Executable code and data must be defined in an appropriate section
000000                00939                 IORWF   WREG
Error[113]  : Symbol not previously defined (Z)
Error[113]  : Symbol not previously defined (ALUSTA)
Error[152]  : Executable code and data must be defined in an appropriate section
000000                00940                 BTFSC   ALUSTA,Z
Error[151]  : Operand contains unresolvable labels or is too complex
Error[152]  : Executable code and data must be defined in an appropriate section
Error[152]  : Executable code and data must be defined in an appropriate section
000000                00941                 GOTO    ADJuSa
                      00942                 ; Here if we are going to send the values to the 
                      00943                 ; times array
Error[113]  : Symbol not previously defined (DriveCh)
Error[152]  : Executable code and data must be defined in an appropriate section
000000                00944                 MOVF    DriveCh,W
Error[113]  : Symbol not previously defined (FSR1L)
Error[152]  : Executable code and data must be defined in an appropriate section
000000                00945                 MOVWF   FSR1L
Error[113]  : Symbol not previously defined (DriveCh)
Error[152]  : Executable code and data must be defined in an appropriate section
000000                00946                 MOVLW   HIGH DriveCh
Error[113]  : Symbol not previously defined (FSR1H)
Error[152]  : Executable code and data must be defined in an appropriate section
000000                00947                 MOVWF   FSR1H
Error[113]  : Symbol not previously defined (CXreg)
Error[152]  : Executable code and data must be defined in an appropriate section
MPASM  5.37                            UI.ASM   8-24-2010  6:19:47         PAGE 48


LOC  OBJECT CODE     LINE SOURCE TEXT
  VALUE

Error[113]  : Symbol not previously defined (POSTINC1)
Error[152]  : Executable code and data must be defined in an appropriate section
000000                00948                 MOVFF   CXreg,POSTINC1
Error[113]  : Symbol not previously defined (CXreg)
Error[152]  : Executable code and data must be defined in an appropriate section
Error[113]  : Symbol not previously defined (INDF1)
Error[152]  : Executable code and data must be defined in an appropriate section
000000                00949                 MOVFF   CXreg+1,INDF1
                      00950         ;
Error[150]  : Labels must be defined in a code or data section when making an object file
000000                00951 ADJuSa
Error[113]  : Symbol not previously defined (IncTime)
Error[152]  : Executable code and data must be defined in an appropriate section
Error[113]  : Symbol not previously defined (WREG)
Error[152]  : Executable code and data must be defined in an appropriate section
000000                00952                 MOVFF   IncTime,WREG
Error[152]  : Executable code and data must be defined in an appropriate section
000000                00953                 SUBLW   D'127'
Error[113]  : Symbol not previously defined (WREG)
Error[113]  : Symbol not previously defined (A)
Error[152]  : Executable code and data must be defined in an appropriate section
000000                00954                 BTFSC   WREG,7,A
Error[113]  : Symbol not previously defined (WREG)
Error[113]  : Symbol not previously defined (A)
Error[152]  : Executable code and data must be defined in an appropriate section
000000                00955                 CLRF    WREG,A
Error[113]  : Symbol not previously defined (WREG)
Error[152]  : Executable code and data must be defined in an appropriate section
000000                00956                 RLNCF   WREG
Error[113]  : Symbol not previously defined (WREG)
Error[113]  : Symbol not previously defined (A)
Error[152]  : Executable code and data must be defined in an appropriate section
000000                00957                 TSTFSZ  WREG,A
Error[113]  : Symbol not previously defined (Delay1mS)
Error[152]  : Executable code and data must be defined in an appropriate section
Error[152]  : Executable code and data must be defined in an appropriate section
000000                00958                 CALL    Delay1mS
                      00959         ; Convert the value in CXreg into a string
Warning[207]: Found label after column 1. (MOVE16)
Error[122]  : Illegal opcode (CXreg)
                      00960                 MOVE16  CXreg,CEXreg
                      00961                 ; Divide by two before the display operation
Error[113]  : Symbol not previously defined (C)
Error[113]  : Symbol not previously defined (ALUSTA)
Error[152]  : Executable code and data must be defined in an appropriate section
000000                00962                 BCF     ALUSTA,C
Error[113]  : Symbol not previously defined (CEXreg)
Error[152]  : Executable code and data must be defined in an appropriate section
000000                00963                 RRCF    CEXreg+1
Error[113]  : Symbol not previously defined (CEXreg)
Error[152]  : Executable code and data must be defined in an appropriate section
000000                00964                 RRCF    CEXreg
Error[113]  : Symbol not previously defined (CEXreg)
MPASM  5.37                            UI.ASM   8-24-2010  6:19:47         PAGE 49


LOC  OBJECT CODE     LINE SOURCE TEXT
  VALUE

Error[152]  : Executable code and data must be defined in an appropriate section
000000                00965                 CLRF    CEXreg+2
Error[113]  : Symbol not previously defined (CEXreg)
Error[152]  : Executable code and data must be defined in an appropriate section
000000                00966                 CLRF    CEXreg+3
Error[113]  : Symbol not previously defined (Int2Str)
Error[152]  : Executable code and data must be defined in an appropriate section
Error[152]  : Executable code and data must be defined in an appropriate section
000000                00967                 CALL    Int2Str
                      00968         ; Position the print position and print...
Warning[207]: Found label after column 1. (CALLFL)
Error[122]  : Illegal opcode (LCDsendCMD)
                      00969                 CALLFL  LCDsendCMD,LINE2+uSPOS
Warning[207]: Found label after column 1. (CALLFF)
Error[122]  : Illegal opcode (LCDsendData)
                      00970                 CALLFF  LCDsendData,Buffer+1
Warning[207]: Found label after column 1. (CALLFL)
Error[122]  : Illegal opcode (LCDsendData)
                      00971                 CALLFL  LCDsendData,'.'
Warning[207]: Found label after column 1. (CALLFF)
Error[122]  : Illegal opcode (LCDsendData)
                      00972                 CALLFF  LCDsendData,Buffer+2
Warning[207]: Found label after column 1. (CALLFF)
Error[122]  : Illegal opcode (LCDsendData)
                      00973                 CALLFF  LCDsendData,Buffer+3
Warning[207]: Found label after column 1. (CALLFF)
Error[122]  : Illegal opcode (LCDsendData)
                      00974                 CALLFF  LCDsendData,Buffer+4
Warning[207]: Found label after column 1. (CALLFL)
Error[122]  : Illegal opcode (LCDsendData)
                      00975                 CALLFL  LCDsendData,'m'
Warning[207]: Found label after column 1. (CALLFL)
Error[122]  : Illegal opcode (LCDsendData)
                      00976                 CALLFL  LCDsendData,'S'
                      00977         ; Test the elevator stick
Error[150]  : Labels must be defined in a code or data section when making an object file
000000                00978 ADJus2
Error[151]  : Operand contains unresolvable labels or is too complex
Error[152]  : Executable code and data must be defined in an appropriate section
Error[152]  : Executable code and data must be defined in an appropriate section
000000                00979                 CALL    Elevator
Error[113]  : Symbol not previously defined (CXreg)
Error[152]  : Executable code and data must be defined in an appropriate section
000000                00980                 MOVLB   HIGH CXreg
Error[113]  : Symbol not previously defined (Z)
Error[113]  : Symbol not previously defined (ALUSTA)
Error[152]  : Executable code and data must be defined in an appropriate section
000000                00981                 BTFSS   ALUSTA,Z
Error[151]  : Operand contains unresolvable labels or is too complex
Error[152]  : Executable code and data must be defined in an appropriate section
Error[152]  : Executable code and data must be defined in an appropriate section
000000                00982                 GOTO    ADJus1
Error[113]  : Symbol not previously defined (CXreg)
MPASM  5.37                            UI.ASM   8-24-2010  6:19:47         PAGE 50


LOC  OBJECT CODE     LINE SOURCE TEXT
  VALUE

Error[152]  : Executable code and data must be defined in an appropriate section
000000                00983                 INCF    CXreg
Error[113]  : Symbol not previously defined (Z)
Error[113]  : Symbol not previously defined (ALUSTA)
Error[152]  : Executable code and data must be defined in an appropriate section
000000                00984                 BTFSC   ALUSTA,Z
Error[113]  : Symbol not previously defined (CXreg)
Error[152]  : Executable code and data must be defined in an appropriate section
000000                00985                 INCF    CXreg+1
Error[113]  : Symbol not previously defined (CXreg)
Error[152]  : Executable code and data must be defined in an appropriate section
000000                00986                 INCF    CXreg
Error[113]  : Symbol not previously defined (Z)
Error[113]  : Symbol not previously defined (ALUSTA)
Error[152]  : Executable code and data must be defined in an appropriate section
000000                00987                 BTFSC   ALUSTA,Z
Error[113]  : Symbol not previously defined (CXreg)
Error[152]  : Executable code and data must be defined in an appropriate section
000000                00988                 INCF    CXreg+1
                      00989                 ; Test the limits...
Error[113]  : Symbol not previously defined (MaxTime)
Error[152]  : Executable code and data must be defined in an appropriate section
000000                00990                 MOVF    MaxTime+1,W
Error[113]  : Symbol not previously defined (CXreg)
Error[152]  : Executable code and data must be defined in an appropriate section
000000                00991                 CPFSEQ  CXreg+1
Error[151]  : Operand contains unresolvable labels or is too complex
Error[152]  : Executable code and data must be defined in an appropriate section
Error[152]  : Executable code and data must be defined in an appropriate section
000000                00992                 GOTO    ADJuS
Error[113]  : Symbol not previously defined (MaxTime)
Error[152]  : Executable code and data must be defined in an appropriate section
000000                00993                 MOVF    MaxTime,W
Error[113]  : Symbol not previously defined (CXreg)
Error[152]  : Executable code and data must be defined in an appropriate section
000000                00994                 CPFSLT  CXreg
Error[113]  : Symbol not previously defined (CXreg)
Error[152]  : Executable code and data must be defined in an appropriate section
000000                00995                 MOVWF   CXreg
Error[151]  : Operand contains unresolvable labels or is too complex
Error[152]  : Executable code and data must be defined in an appropriate section
Error[152]  : Executable code and data must be defined in an appropriate section
000000                00996                 GOTO    ADJuS
Error[150]  : Labels must be defined in a code or data section when making an object file
000000                00997 ADJus1
Error[113]  : Symbol not previously defined (C)
Error[113]  : Symbol not previously defined (ALUSTA)
Error[152]  : Executable code and data must be defined in an appropriate section
000000                00998                 BTFSS   ALUSTA,C
Error[151]  : Operand contains unresolvable labels or is too complex
Error[152]  : Executable code and data must be defined in an appropriate section
Error[152]  : Executable code and data must be defined in an appropriate section
000000                00999                 GOTO    ADJus3
MPASM  5.37                            UI.ASM   8-24-2010  6:19:47         PAGE 51


LOC  OBJECT CODE     LINE SOURCE TEXT
  VALUE

Error[113]  : Symbol not previously defined (CXreg)
Error[152]  : Executable code and data must be defined in an appropriate section
000000                01000                 DECF    CXreg
Error[113]  : Symbol not previously defined (C)
Error[113]  : Symbol not previously defined (ALUSTA)
Error[152]  : Executable code and data must be defined in an appropriate section
000000                01001                 BTFSS   ALUSTA,C
Error[113]  : Symbol not previously defined (CXreg)
Error[152]  : Executable code and data must be defined in an appropriate section
000000                01002                 DECF    CXreg+1
Error[113]  : Symbol not previously defined (CXreg)
Error[152]  : Executable code and data must be defined in an appropriate section
000000                01003                 DECF    CXreg
Error[113]  : Symbol not previously defined (C)
Error[113]  : Symbol not previously defined (ALUSTA)
Error[152]  : Executable code and data must be defined in an appropriate section
000000                01004                 BTFSS   ALUSTA,C
Error[113]  : Symbol not previously defined (CXreg)
Error[152]  : Executable code and data must be defined in an appropriate section
000000                01005                 DECF    CXreg+1
                      01006                 ; Test limits
Error[113]  : Symbol not previously defined (MinTime)
Error[152]  : Executable code and data must be defined in an appropriate section
000000                01007                 MOVF    MinTime+1,W
Error[113]  : Symbol not previously defined (CXreg)
Error[152]  : Executable code and data must be defined in an appropriate section
000000                01008                 CPFSEQ  CXreg+1
Error[151]  : Operand contains unresolvable labels or is too complex
Error[152]  : Executable code and data must be defined in an appropriate section
Error[152]  : Executable code and data must be defined in an appropriate section
000000                01009                 GOTO    ADJuS
Error[113]  : Symbol not previously defined (MinTime)
Error[152]  : Executable code and data must be defined in an appropriate section
000000                01010                 MOVF    MinTime,W
Error[113]  : Symbol not previously defined (CXreg)
Error[152]  : Executable code and data must be defined in an appropriate section
000000                01011                 CPFSGT  CXreg
Error[113]  : Symbol not previously defined (CXreg)
Error[152]  : Executable code and data must be defined in an appropriate section
000000                01012                 MOVWF   CXreg
Error[151]  : Operand contains unresolvable labels or is too complex
Error[152]  : Executable code and data must be defined in an appropriate section
Error[152]  : Executable code and data must be defined in an appropriate section
000000                01013                 GOTO    ADJuS
                      01014         ; Test if the AUTO trim button has been pressed...
Error[150]  : Labels must be defined in a code or data section when making an object file
000000                01015 ADJus3
Error[113]  : Symbol not previously defined (SymSet)
Error[152]  : Executable code and data must be defined in an appropriate section
000000                01016                 MOVLB   HIGH SymSet
Error[113]  : Symbol not previously defined (AUTOT)
Error[113]  : Symbol not previously defined (PORTEimage)
Error[152]  : Executable code and data must be defined in an appropriate section
MPASM  5.37                            UI.ASM   8-24-2010  6:19:47         PAGE 52


LOC  OBJECT CODE     LINE SOURCE TEXT
  VALUE

000000                01017                 BTFSS   PORTEimage,AUTOT
Error[113]  : Symbol not previously defined (SymSet)
Error[152]  : Executable code and data must be defined in an appropriate section
000000                01018                 SETF    SymSet
                      01019         ; If Snap Right button is pressed then set time to max
Error[113]  : Symbol not previously defined (SNAPR)
Error[113]  : Symbol not previously defined (PORTEimage)
Error[152]  : Executable code and data must be defined in an appropriate section
000000                01020                 BTFSC   PORTEimage,SNAPR
Error[151]  : Operand contains unresolvable labels or is too complex
Error[152]  : Executable code and data must be defined in an appropriate section
Error[152]  : Executable code and data must be defined in an appropriate section
000000                01021                 GOTO    ADJus3a
Warning[207]: Found label after column 1. (MOVEC)
Error[122]  : Illegal opcode (D)
000000                01022                 MOVEC   D'4000', CXreg
Error[150]  : Labels must be defined in a code or data section when making an object file
000000                01023 ADJus3a
                      01024         ; If snap Left button is pressed then set time to min
Error[113]  : Symbol not previously defined (PORTEimage)
Error[152]  : Executable code and data must be defined in an appropriate section
000000                01025                 MOVLB   HIGH PORTEimage
Error[113]  : Symbol not previously defined (SNAPL)
Error[113]  : Symbol not previously defined (PORTEimage)
Error[152]  : Executable code and data must be defined in an appropriate section
000000                01026                 BTFSC   PORTEimage,SNAPL
Error[151]  : Operand contains unresolvable labels or is too complex
Error[152]  : Executable code and data must be defined in an appropriate section
Error[152]  : Executable code and data must be defined in an appropriate section
000000                01027                 GOTO    ADJus3b
Warning[207]: Found label after column 1. (MOVEC)
Error[122]  : Illegal opcode (D)
000000                01028                 MOVEC   D'2000', CXreg
Error[150]  : Labels must be defined in a code or data section when making an object file
000000                01029 ADJus3b 
                      01030         ; Test for the option button to indicate we exit
Error[151]  : Operand contains unresolvable labels or is too complex
Error[152]  : Executable code and data must be defined in an appropriate section
Error[152]  : Executable code and data must be defined in an appropriate section
000000                01031                 CALL    CalSaveAndExit
Error[113]  : Symbol not previously defined (Option)
Error[152]  : Executable code and data must be defined in an appropriate section
Error[152]  : Executable code and data must be defined in an appropriate section
000000                01032                 CALL    Option
Error[113]  : Symbol not previously defined (C)
Error[113]  : Symbol not previously defined (ALUSTA)
Error[152]  : Executable code and data must be defined in an appropriate section
000000                01033                 BTFSS   ALUSTA,C
Error[151]  : Operand contains unresolvable labels or is too complex
Error[152]  : Executable code and data must be defined in an appropriate section
Error[152]  : Executable code and data must be defined in an appropriate section
000000                01034                 GOTO    ADJuSz
Error[152]  : Executable code and data must be defined in an appropriate section
MPASM  5.37                            UI.ASM   8-24-2010  6:19:47         PAGE 53


LOC  OBJECT CODE     LINE SOURCE TEXT
  VALUE

000000                01035                 RETURN
                      01036 
                      01037 ; This function allows the pilot to adjust the signed integer
                      01038 ; value saved in CXreg. ;
                      01039 ; CXreg contains the 16 bit signed integer value.
Error[150]  : Labels must be defined in a code or data section when making an object file
000000                01040 ADJinteger
                      01041         ; Adjust the delay time based on stick position
Error[113]  : Symbol not previously defined (IncTime)
Error[152]  : Executable code and data must be defined in an appropriate section
Error[113]  : Symbol not previously defined (WREG)
Error[152]  : Executable code and data must be defined in an appropriate section
000000                01042                 MOVFF   IncTime,WREG
Error[152]  : Executable code and data must be defined in an appropriate section
000000                01043                 SUBLW   D'127'
Error[113]  : Symbol not previously defined (WREG)
Error[113]  : Symbol not previously defined (A)
Error[152]  : Executable code and data must be defined in an appropriate section
000000                01044                 BTFSC   WREG,7,A
Error[113]  : Symbol not previously defined (WREG)
Error[113]  : Symbol not previously defined (A)
Error[152]  : Executable code and data must be defined in an appropriate section
000000                01045                 CLRF    WREG,A
Error[113]  : Symbol not previously defined (WREG)
Error[152]  : Executable code and data must be defined in an appropriate section
000000                01046                 RLNCF   WREG
Error[113]  : Symbol not previously defined (WREG)
Error[113]  : Symbol not previously defined (A)
Error[152]  : Executable code and data must be defined in an appropriate section
000000                01047                 TSTFSZ  WREG,A
Error[113]  : Symbol not previously defined (Delay1mS)
Error[152]  : Executable code and data must be defined in an appropriate section
Error[152]  : Executable code and data must be defined in an appropriate section
000000                01048                 CALL    Delay1mS
                      01049         ; Convert the value in CXreg into a string
Warning[207]: Found label after column 1. (MOVE16)
Error[122]  : Illegal opcode (CXreg)
                      01050                 MOVE16  CXreg,CEXreg
Error[113]  : Symbol not previously defined (CEXreg)
Error[152]  : Executable code and data must be defined in an appropriate section
000000                01051                 CLRF    CEXreg+2
Error[113]  : Symbol not previously defined (CEXreg)
Error[152]  : Executable code and data must be defined in an appropriate section
000000                01052                 CLRF    CEXreg+3
Error[113]  : Symbol not previously defined (Int2Str)
Error[152]  : Executable code and data must be defined in an appropriate section
Error[152]  : Executable code and data must be defined in an appropriate section
000000                01053                 CALL    Int2Str
                      01054         ; Position and print
Warning[207]: Found label after column 1. (CALLFL)
Error[122]  : Illegal opcode (LCDsendCMD)
                      01055                 CALLFL  LCDsendCMD,LINE2+INTPOS
Warning[207]: Found label after column 1. (CALLFF)
MPASM  5.37                            UI.ASM   8-24-2010  6:19:47         PAGE 54


LOC  OBJECT CODE     LINE SOURCE TEXT
  VALUE

Error[122]  : Illegal opcode (LCDsendData)
                      01056                 CALLFF  LCDsendData,Buffer
Warning[207]: Found label after column 1. (CALLFF)
Error[122]  : Illegal opcode (LCDsendData)
                      01057                 CALLFF  LCDsendData,Buffer+1
Warning[207]: Found label after column 1. (CALLFF)
Error[122]  : Illegal opcode (LCDsendData)
                      01058                 CALLFF  LCDsendData,Buffer+2
Warning[207]: Found label after column 1. (CALLFF)
Error[122]  : Illegal opcode (LCDsendData)
                      01059                 CALLFF  LCDsendData,Buffer+3
Warning[207]: Found label after column 1. (CALLFF)
Error[122]  : Illegal opcode (LCDsendData)
                      01060                 CALLFF  LCDsendData,Buffer+4
                      01061         ; Test the elevator stick
Error[150]  : Labels must be defined in a code or data section when making an object file
000000                01062 ADJint2
Error[151]  : Operand contains unresolvable labels or is too complex
Error[152]  : Executable code and data must be defined in an appropriate section
Error[152]  : Executable code and data must be defined in an appropriate section
000000                01063                 CALL    Elevator
Error[113]  : Symbol not previously defined (CXreg)
Error[152]  : Executable code and data must be defined in an appropriate section
000000                01064                 MOVLB   HIGH CXreg
Error[113]  : Symbol not previously defined (Z)
Error[113]  : Symbol not previously defined (ALUSTA)
Error[152]  : Executable code and data must be defined in an appropriate section
000000                01065                 BTFSS   ALUSTA,Z
Error[151]  : Operand contains unresolvable labels or is too complex
Error[152]  : Executable code and data must be defined in an appropriate section
Error[152]  : Executable code and data must be defined in an appropriate section
000000                01066                 GOTO    ADJint1
Error[113]  : Symbol not previously defined (CXreg)
Error[152]  : Executable code and data must be defined in an appropriate section
000000                01067                 INCF    CXreg
Error[113]  : Symbol not previously defined (Z)
Error[113]  : Symbol not previously defined (ALUSTA)
Error[152]  : Executable code and data must be defined in an appropriate section
000000                01068                 BTFSC   ALUSTA,Z
Error[113]  : Symbol not previously defined (CXreg)
Error[152]  : Executable code and data must be defined in an appropriate section
000000                01069                 INCF    CXreg+1
                      01070                 ; Test the limits...
Error[113]  : Symbol not previously defined (MaxTime)
Error[152]  : Executable code and data must be defined in an appropriate section
000000                01071                 MOVF    MaxTime+1,W
Error[113]  : Symbol not previously defined (CXreg)
Error[152]  : Executable code and data must be defined in an appropriate section
000000                01072                 CPFSEQ  CXreg+1
Error[151]  : Operand contains unresolvable labels or is too complex
Error[152]  : Executable code and data must be defined in an appropriate section
Error[152]  : Executable code and data must be defined in an appropriate section
000000                01073                 GOTO    ADJinteger
MPASM  5.37                            UI.ASM   8-24-2010  6:19:47         PAGE 55


LOC  OBJECT CODE     LINE SOURCE TEXT
  VALUE

Error[113]  : Symbol not previously defined (MaxTime)
Error[152]  : Executable code and data must be defined in an appropriate section
000000                01074                 MOVF    MaxTime,W
Error[113]  : Symbol not previously defined (CXreg)
Error[152]  : Executable code and data must be defined in an appropriate section
000000                01075                 CPFSLT  CXreg
Error[113]  : Symbol not previously defined (CXreg)
Error[152]  : Executable code and data must be defined in an appropriate section
000000                01076                 MOVWF   CXreg
Error[151]  : Operand contains unresolvable labels or is too complex
Error[152]  : Executable code and data must be defined in an appropriate section
Error[152]  : Executable code and data must be defined in an appropriate section
000000                01077                 GOTO    ADJinteger
Error[150]  : Labels must be defined in a code or data section when making an object file
000000                01078 ADJint1
Error[113]  : Symbol not previously defined (C)
Error[113]  : Symbol not previously defined (ALUSTA)
Error[152]  : Executable code and data must be defined in an appropriate section
000000                01079                 BTFSS   ALUSTA,C
Error[151]  : Operand contains unresolvable labels or is too complex
Error[152]  : Executable code and data must be defined in an appropriate section
Error[152]  : Executable code and data must be defined in an appropriate section
000000                01080                 GOTO    ADJint3
Error[113]  : Symbol not previously defined (CXreg)
Error[152]  : Executable code and data must be defined in an appropriate section
000000                01081                 DECF    CXreg
Error[113]  : Symbol not previously defined (C)
Error[113]  : Symbol not previously defined (ALUSTA)
Error[152]  : Executable code and data must be defined in an appropriate section
000000                01082                 BTFSS   ALUSTA,C
Error[113]  : Symbol not previously defined (CXreg)
Error[152]  : Executable code and data must be defined in an appropriate section
000000                01083                 DECF    CXreg+1
                      01084                 ; Test limits
Error[113]  : Symbol not previously defined (MinTime)
Error[152]  : Executable code and data must be defined in an appropriate section
000000                01085                 MOVF    MinTime+1,W
Error[113]  : Symbol not previously defined (CXreg)
Error[152]  : Executable code and data must be defined in an appropriate section
000000                01086                 CPFSEQ  CXreg+1
Error[151]  : Operand contains unresolvable labels or is too complex
Error[152]  : Executable code and data must be defined in an appropriate section
Error[152]  : Executable code and data must be defined in an appropriate section
000000                01087                 GOTO    ADJinteger
Error[113]  : Symbol not previously defined (MinTime)
Error[152]  : Executable code and data must be defined in an appropriate section
000000                01088                 MOVF    MinTime,W
Error[113]  : Symbol not previously defined (CXreg)
Error[152]  : Executable code and data must be defined in an appropriate section
000000                01089                 CPFSGT  CXreg
Error[113]  : Symbol not previously defined (CXreg)
Error[152]  : Executable code and data must be defined in an appropriate section
000000                01090                 MOVWF   CXreg
MPASM  5.37                            UI.ASM   8-24-2010  6:19:47         PAGE 56


LOC  OBJECT CODE     LINE SOURCE TEXT
  VALUE

Error[151]  : Operand contains unresolvable labels or is too complex
Error[152]  : Executable code and data must be defined in an appropriate section
Error[152]  : Executable code and data must be defined in an appropriate section
000000                01091                 GOTO    ADJinteger
                      01092         ; Test for the option button to indicate we exit
Error[150]  : Labels must be defined in a code or data section when making an object file
000000                01093 ADJint3 
Error[151]  : Operand contains unresolvable labels or is too complex
Error[152]  : Executable code and data must be defined in an appropriate section
Error[152]  : Executable code and data must be defined in an appropriate section
000000                01094                 CALL    CalSaveAndExit
Error[113]  : Symbol not previously defined (Option)
Error[152]  : Executable code and data must be defined in an appropriate section
Error[152]  : Executable code and data must be defined in an appropriate section
000000                01095                 CALL    Option
Error[113]  : Symbol not previously defined (C)
Error[113]  : Symbol not previously defined (ALUSTA)
Error[152]  : Executable code and data must be defined in an appropriate section
000000                01096                 BTFSS   ALUSTA,C
Error[151]  : Operand contains unresolvable labels or is too complex
Error[152]  : Executable code and data must be defined in an appropriate section
Error[152]  : Executable code and data must be defined in an appropriate section
000000                01097                 GOTO    ADJinteger
Error[152]  : Executable code and data must be defined in an appropriate section
000000                01098                 RETURN
                      01099 
                      01100 
                      01101 ; This function uses the elevator stick to select an option
                      01102 ; from the table pointed to by the value in BXreg. When the
                      01103 ; Option key is pressed, the variable at the end of the selected
                      01104 ; table is placed in the pointer defined in the DXreg 
                      01105 ; BXreg points to table 
                      01106 ; DXreg points to variable location
Error[150]  : Labels must be defined in a code or data section when making an object file
000000                01107 VerticalSelection
                      01108         ; Display the message
Error[150]  : Labels must be defined in a code or data section when making an object file
000000                01109 VerSel4 
Warning[207]: Found label after column 1. (CALLFL)
Error[122]  : Illegal opcode (LCDsendCMD)
000000                01110                 CALLFL  LCDsendCMD,LINE2
Error[113]  : Symbol not previously defined (BXreg)
Error[152]  : Executable code and data must be defined in an appropriate section
Error[113]  : Symbol not previously defined (TBLPTRL)
Error[152]  : Executable code and data must be defined in an appropriate section
000000                01111                 MOVFF   BXreg,TBLPTRL
Error[113]  : Symbol not previously defined (BXreg)
Error[152]  : Executable code and data must be defined in an appropriate section
Error[113]  : Symbol not previously defined (TBLPTRH)
Error[152]  : Executable code and data must be defined in an appropriate section
000000                01112                 MOVFF   BXreg+1,TBLPTRH
Error[113]  : Symbol not previously defined (LCDsendMess)
Error[152]  : Executable code and data must be defined in an appropriate section
MPASM  5.37                            UI.ASM   8-24-2010  6:19:47         PAGE 57


LOC  OBJECT CODE     LINE SOURCE TEXT
  VALUE

Error[152]  : Executable code and data must be defined in an appropriate section
000000                01113                 CALL    LCDsendMess
Warning[207]: Found label after column 1. (CALLFL)
Error[122]  : Illegal opcode (Delay1mS)
000000                01114                 CALLFL  Delay1mS,D'250'
                      01115         ; Get the users selection
Error[151]  : Operand contains unresolvable labels or is too complex
Error[152]  : Executable code and data must be defined in an appropriate section
Error[152]  : Executable code and data must be defined in an appropriate section
000000                01116                 CALL    Elevator
Error[113]  : Symbol not previously defined (Z)
Error[113]  : Symbol not previously defined (ALUSTA)
Error[152]  : Executable code and data must be defined in an appropriate section
000000                01117                 BTFSS   ALUSTA,Z
Error[151]  : Operand contains unresolvable labels or is too complex
Error[152]  : Executable code and data must be defined in an appropriate section
Error[152]  : Executable code and data must be defined in an appropriate section
000000                01118                 GOTO    VerSel1
                      01119                 ; If here go to next selection
Error[152]  : Executable code and data must be defined in an appropriate section
000000                01120                 MOVLW   D'17'
Error[113]  : Symbol not previously defined (BXreg)
Error[152]  : Executable code and data must be defined in an appropriate section
000000                01121                 ADDWF   BXreg,F
Error[113]  : Symbol not previously defined (C)
Error[113]  : Symbol not previously defined (ALUSTA)
Error[152]  : Executable code and data must be defined in an appropriate section
000000                01122                 BTFSC   ALUSTA,C
Error[113]  : Symbol not previously defined (BXreg)
Error[152]  : Executable code and data must be defined in an appropriate section
000000                01123                 INCF    BXreg+1,F
Error[151]  : Operand contains unresolvable labels or is too complex
Error[152]  : Executable code and data must be defined in an appropriate section
Error[152]  : Executable code and data must be defined in an appropriate section
000000                01124                 GOTO    VerSel2
Error[150]  : Labels must be defined in a code or data section when making an object file
000000                01125 VerSel1
Error[113]  : Symbol not previously defined (C)
Error[113]  : Symbol not previously defined (ALUSTA)
Error[152]  : Executable code and data must be defined in an appropriate section
000000                01126                 BTFSS   ALUSTA,C
Error[151]  : Operand contains unresolvable labels or is too complex
Error[152]  : Executable code and data must be defined in an appropriate section
Error[152]  : Executable code and data must be defined in an appropriate section
000000                01127                 GOTO    VerSel3
                      01128                 ; If here go to last selection
Error[152]  : Executable code and data must be defined in an appropriate section
000000                01129                 MOVLW   D'19'
Error[113]  : Symbol not previously defined (BXreg)
Error[152]  : Executable code and data must be defined in an appropriate section
000000                01130                 ADDWF   BXreg
Error[113]  : Symbol not previously defined (C)
Error[113]  : Symbol not previously defined (ALUSTA)
MPASM  5.37                            UI.ASM   8-24-2010  6:19:47         PAGE 58


LOC  OBJECT CODE     LINE SOURCE TEXT
  VALUE

Error[152]  : Executable code and data must be defined in an appropriate section
000000                01131                 BTFSC   ALUSTA,C
Error[113]  : Symbol not previously defined (BXreg)
Error[152]  : Executable code and data must be defined in an appropriate section
000000                01132                 INCF    BXreg+1
Error[150]  : Labels must be defined in a code or data section when making an object file
000000                01133 VerSel2
                      01134                 ; Load BXreg into the table pointer
Error[113]  : Symbol not previously defined (BXreg)
Error[152]  : Executable code and data must be defined in an appropriate section
Error[113]  : Symbol not previously defined (TBLPTRL)
Error[152]  : Executable code and data must be defined in an appropriate section
000000                01135                 MOVFF   BXreg,TBLPTRL
Error[113]  : Symbol not previously defined (BXreg)
Error[152]  : Executable code and data must be defined in an appropriate section
Error[113]  : Symbol not previously defined (TBLPTRH)
Error[152]  : Executable code and data must be defined in an appropriate section
000000                01136                 MOVFF   BXreg+1,TBLPTRH
Error[113]  : Symbol not previously defined (TBLPTRU)
Error[152]  : Executable code and data must be defined in an appropriate section
000000                01137                 CLRF    TBLPTRU
                      01138                 ; Load BXreg with the table pointer contents...
Error[152]  : Executable code and data must be defined in an appropriate section
000000                01139                 TBLRD*+
Error[113]  : Symbol not previously defined (TABLAT)
Error[152]  : Executable code and data must be defined in an appropriate section
Error[113]  : Symbol not previously defined (BXreg)
Error[152]  : Executable code and data must be defined in an appropriate section
000000                01140                 MOVFF   TABLAT,BXreg
Error[152]  : Executable code and data must be defined in an appropriate section
000000                01141                 TBLRD*+
Error[113]  : Symbol not previously defined (TABLAT)
Error[152]  : Executable code and data must be defined in an appropriate section
Error[113]  : Symbol not previously defined (BXreg)
Error[152]  : Executable code and data must be defined in an appropriate section
000000                01142                 MOVFF   TABLAT,BXreg+1
Error[151]  : Operand contains unresolvable labels or is too complex
Error[152]  : Executable code and data must be defined in an appropriate section
Error[152]  : Executable code and data must be defined in an appropriate section
000000                01143                 GOTO    VerSel4
                      01144         ; Check for Option button
Error[150]  : Labels must be defined in a code or data section when making an object file
000000                01145 VerSel3
Error[151]  : Operand contains unresolvable labels or is too complex
Error[152]  : Executable code and data must be defined in an appropriate section
Error[152]  : Executable code and data must be defined in an appropriate section
000000                01146                 CALL    CalSaveAndExit
Error[113]  : Symbol not previously defined (Option)
Error[152]  : Executable code and data must be defined in an appropriate section
Error[152]  : Executable code and data must be defined in an appropriate section
000000                01147                 CALL    Option
Error[113]  : Symbol not previously defined (C)
Error[113]  : Symbol not previously defined (ALUSTA)
MPASM  5.37                            UI.ASM   8-24-2010  6:19:47         PAGE 59


LOC  OBJECT CODE     LINE SOURCE TEXT
  VALUE

Error[152]  : Executable code and data must be defined in an appropriate section
000000                01148                 BTFSS   ALUSTA,C
Error[151]  : Operand contains unresolvable labels or is too complex
Error[152]  : Executable code and data must be defined in an appropriate section
Error[152]  : Executable code and data must be defined in an appropriate section
000000                01149                 GOTO    VerSel4
                      01150         ; The option button  has been pressed. Advance the table
                      01151         ; pointer to the parameters at the end of the record.
Error[152]  : Executable code and data must be defined in an appropriate section
000000                01152                 MOVLW   D'21'
Error[113]  : Symbol not previously defined (BXreg)
Error[152]  : Executable code and data must be defined in an appropriate section
000000                01153                 ADDWF   BXreg
Error[113]  : Symbol not previously defined (C)
Error[113]  : Symbol not previously defined (ALUSTA)
Error[152]  : Executable code and data must be defined in an appropriate section
000000                01154                 BTFSC   ALUSTA,C
Error[113]  : Symbol not previously defined (BXreg)
Error[152]  : Executable code and data must be defined in an appropriate section
000000                01155                 INCF    BXreg+1
                      01156                 ; Load BXreg into the table pointer
Error[113]  : Symbol not previously defined (BXreg)
Error[152]  : Executable code and data must be defined in an appropriate section
Error[113]  : Symbol not previously defined (TBLPTRL)
Error[152]  : Executable code and data must be defined in an appropriate section
000000                01157                 MOVFF   BXreg,TBLPTRL
Error[113]  : Symbol not previously defined (BXreg)
Error[152]  : Executable code and data must be defined in an appropriate section
Error[113]  : Symbol not previously defined (TBLPTRH)
Error[152]  : Executable code and data must be defined in an appropriate section
000000                01158                 MOVFF   BXreg+1,TBLPTRH
Error[113]  : Symbol not previously defined (TBLPTRU)
Error[152]  : Executable code and data must be defined in an appropriate section
000000                01159                 CLRF    TBLPTRU
                      01160                 ; Load the variable...
Error[152]  : Executable code and data must be defined in an appropriate section
000000                01161                 TBLRD*+
Error[113]  : Symbol not previously defined (TABLAT)
Error[152]  : Executable code and data must be defined in an appropriate section
Error[113]  : Symbol not previously defined (Areg)
Error[152]  : Executable code and data must be defined in an appropriate section
000000                01162                 MOVFF   TABLAT,Areg
Error[152]  : Executable code and data must be defined in an appropriate section
000000                01163                 TBLRD*+
Warning[207]: Found label after column 1. (MOVFP)
Error[122]  : Illegal opcode (TABLAT)
000000                01164                 MOVFP   TABLAT,WREG
                      01165         ; Load the variable into the address contained in DXreg
Error[113]  : Symbol not previously defined (DXreg)
Error[152]  : Executable code and data must be defined in an appropriate section
Error[113]  : Symbol not previously defined (FSR1L)
Error[152]  : Executable code and data must be defined in an appropriate section
000000                01166                 MOVFF   DXreg,FSR1L
MPASM  5.37                            UI.ASM   8-24-2010  6:19:47         PAGE 60


LOC  OBJECT CODE     LINE SOURCE TEXT
  VALUE

Error[113]  : Symbol not previously defined (DXreg)
Error[152]  : Executable code and data must be defined in an appropriate section
Error[113]  : Symbol not previously defined (FSR1H)
Error[152]  : Executable code and data must be defined in an appropriate section
000000                01167                 MOVFF   DXreg+1,FSR1H
Warning[207]: Found label after column 1. (MOVPF)
Error[122]  : Illegal opcode (Areg)
000000                01168                 MOVPF   Areg,INDF1  
Error[152]  : Executable code and data must be defined in an appropriate section
000000                01169                 RETURN
                      01170 ;
                      01171 ; This function uses the elevator stick to select a channel.
                      01172 ; The selected channel is returned in WREG when the option 
                      01173 ; key is pressed. On call WREG contains the current value.
                      01174 ;
Error[150]  : Labels must be defined in a code or data section when making an object file
000000                01175 SelectChannel
                      01176         ; Valid Range for WREG is 0 to 8, now enforce it...
Error[152]  : Executable code and data must be defined in an appropriate section
000000                01177                 ANDLW   0F
Error[113]  : Symbol not previously defined (WREG)
Error[152]  : Executable code and data must be defined in an appropriate section
000000                01178                 BTFSC   WREG,3
Error[152]  : Executable code and data must be defined in an appropriate section
000000                01179                 ANDLW   08
                      01180         ; Set to current selection
Error[113]  : Symbol not previously defined (SERVOSEL2)
Error[113]  : Symbol not previously defined (SERVOSEL1)
Error[152]  : Executable code and data must be defined in an appropriate section
000000                01181                 MULLW   LOW (SERVOSEL2 - SERVOSEL1)
Error[113]  : Symbol not previously defined (PRODL)
Error[152]  : Executable code and data must be defined in an appropriate section
Error[113]  : Symbol not previously defined (CEXreg)
Error[152]  : Executable code and data must be defined in an appropriate section
000000                01182                 MOVFF   PRODL,CEXreg
Error[113]  : Symbol not previously defined (PRODH)
Error[152]  : Executable code and data must be defined in an appropriate section
Error[113]  : Symbol not previously defined (CEXreg)
Error[152]  : Executable code and data must be defined in an appropriate section
000000                01183                 MOVFF   PRODH,CEXreg+1
                      01184         ; Use CEXreg to point to the message table
Warning[207]: Found label after column 1. (MOVLR)
Error[122]  : Illegal opcode (HIGH)
                      01185                 MOVLR   HIGH CEXreg
Error[113]  : Symbol not previously defined (SERVOSEL1)
Error[152]  : Executable code and data must be defined in an appropriate section
000000                01186                 MOVLW   LOW SERVOSEL1
Error[113]  : Symbol not previously defined (CEXreg)
Error[152]  : Executable code and data must be defined in an appropriate section
000000                01187                 ADDWF   CEXreg,F
Error[113]  : Symbol not previously defined (SERVOSEL1)
Error[152]  : Executable code and data must be defined in an appropriate section
000000                01188                 MOVLW   HIGH SERVOSEL1
MPASM  5.37                            UI.ASM   8-24-2010  6:19:47         PAGE 61


LOC  OBJECT CODE     LINE SOURCE TEXT
  VALUE

Error[113]  : Symbol not previously defined (CEXreg)
Error[152]  : Executable code and data must be defined in an appropriate section
000000                01189                 ADDWFC  CEXreg+1,F
                      01190         ; Display the message
Error[150]  : Labels must be defined in a code or data section when making an object file
000000                01191 SelectChannel4  
Warning[207]: Found label after column 1. (CALLFL)
Error[122]  : Illegal opcode (LCDsendCMD)
000000                01192                 CALLFL  LCDsendCMD,LINE2+SELCHPOS
Error[113]  : Symbol not previously defined (CEXreg)
Error[152]  : Executable code and data must be defined in an appropriate section
Error[113]  : Symbol not previously defined (TBLPTRL)
Error[152]  : Executable code and data must be defined in an appropriate section
000000                01193                 MOVFF   CEXreg,TBLPTRL
Error[113]  : Symbol not previously defined (CEXreg)
Error[152]  : Executable code and data must be defined in an appropriate section
Error[113]  : Symbol not previously defined (TBLPTRH)
Error[152]  : Executable code and data must be defined in an appropriate section
000000                01194                 MOVFF   CEXreg+1,TBLPTRH
Error[113]  : Symbol not previously defined (LCDsendMess)
Error[152]  : Executable code and data must be defined in an appropriate section
Error[152]  : Executable code and data must be defined in an appropriate section
000000                01195                 CALL    LCDsendMess
Warning[207]: Found label after column 1. (CALLFL)
Error[122]  : Illegal opcode (Delay1mS)
000000                01196                 CALLFL  Delay1mS,D'250'
                      01197         ; Get the users selection
Error[151]  : Operand contains unresolvable labels or is too complex
Error[152]  : Executable code and data must be defined in an appropriate section
Error[152]  : Executable code and data must be defined in an appropriate section
000000                01198                 CALL    Elevator
Error[113]  : Symbol not previously defined (Z)
Error[113]  : Symbol not previously defined (ALUSTA)
Error[113]  : Symbol not previously defined (A)
Error[152]  : Executable code and data must be defined in an appropriate section
000000                01199                 BTFSS   ALUSTA,Z,A
Error[151]  : Operand contains unresolvable labels or is too complex
Error[152]  : Executable code and data must be defined in an appropriate section
Error[152]  : Executable code and data must be defined in an appropriate section
000000                01200                 GOTO    SelectChannel1
                      01201                 ; If here go to next selection
Error[152]  : Executable code and data must be defined in an appropriate section
000000                01202                 MOVLW   D'5'
Error[113]  : Symbol not previously defined (CEXreg)
Error[152]  : Executable code and data must be defined in an appropriate section
000000                01203                 ADDWF   CEXreg,F
Error[113]  : Symbol not previously defined (C)
Error[113]  : Symbol not previously defined (ALUSTA)
Error[113]  : Symbol not previously defined (A)
Error[152]  : Executable code and data must be defined in an appropriate section
000000                01204                 BTFSC   ALUSTA,C,A
Error[113]  : Symbol not previously defined (CEXreg)
Error[152]  : Executable code and data must be defined in an appropriate section
MPASM  5.37                            UI.ASM   8-24-2010  6:19:47         PAGE 62


LOC  OBJECT CODE     LINE SOURCE TEXT
  VALUE

000000                01205                 INCF    CEXreg+1,F
Error[151]  : Operand contains unresolvable labels or is too complex
Error[152]  : Executable code and data must be defined in an appropriate section
Error[152]  : Executable code and data must be defined in an appropriate section
000000                01206                 GOTO    SelectChannel2
Error[150]  : Labels must be defined in a code or data section when making an object file
000000                01207 SelectChannel1
Error[113]  : Symbol not previously defined (C)
Error[113]  : Symbol not previously defined (ALUSTA)
Error[152]  : Executable code and data must be defined in an appropriate section
000000                01208                 BTFSS   ALUSTA,C
Error[151]  : Operand contains unresolvable labels or is too complex
Error[152]  : Executable code and data must be defined in an appropriate section
Error[152]  : Executable code and data must be defined in an appropriate section
000000                01209                 GOTO    SelectChannel3
                      01210                 ; If here go to last selection
Error[152]  : Executable code and data must be defined in an appropriate section
000000                01211                 MOVLW   D'7'
Error[113]  : Symbol not previously defined (CEXreg)
Error[152]  : Executable code and data must be defined in an appropriate section
000000                01212                 ADDWF   CEXreg
Error[113]  : Symbol not previously defined (C)
Error[113]  : Symbol not previously defined (ALUSTA)
Error[113]  : Symbol not previously defined (A)
Error[152]  : Executable code and data must be defined in an appropriate section
000000                01213                 BTFSC   ALUSTA,C,A
Error[113]  : Symbol not previously defined (CEXreg)
Error[152]  : Executable code and data must be defined in an appropriate section
000000                01214                 INCF    CEXreg+1
Error[150]  : Labels must be defined in a code or data section when making an object file
000000                01215 SelectChannel2
                      01216                 ; Load CEXreg into the table pointer
Error[113]  : Symbol not previously defined (CEXreg)
Error[152]  : Executable code and data must be defined in an appropriate section
Error[113]  : Symbol not previously defined (TBLPTRL)
Error[152]  : Executable code and data must be defined in an appropriate section
000000                01217                 MOVFF   CEXreg,TBLPTRL
Error[113]  : Symbol not previously defined (CEXreg)
Error[152]  : Executable code and data must be defined in an appropriate section
Error[113]  : Symbol not previously defined (TBLPTRH)
Error[152]  : Executable code and data must be defined in an appropriate section
000000                01218                 MOVFF   CEXreg+1,TBLPTRH
Error[113]  : Symbol not previously defined (TBLPTRU)
Error[152]  : Executable code and data must be defined in an appropriate section
000000                01219                 CLRF    TBLPTRU
                      01220                 ; Load CEXreg with the table pointer contents...
Error[152]  : Executable code and data must be defined in an appropriate section
000000                01221                 TBLRD*+
Error[113]  : Symbol not previously defined (TABLAT)
Error[152]  : Executable code and data must be defined in an appropriate section
Error[113]  : Symbol not previously defined (CEXreg)
Error[152]  : Executable code and data must be defined in an appropriate section
000000                01222                 MOVFF   TABLAT,CEXreg
MPASM  5.37                            UI.ASM   8-24-2010  6:19:47         PAGE 63


LOC  OBJECT CODE     LINE SOURCE TEXT
  VALUE

Error[152]  : Executable code and data must be defined in an appropriate section
000000                01223                 TBLRD*+
Error[113]  : Symbol not previously defined (TABLAT)
Error[152]  : Executable code and data must be defined in an appropriate section
Error[113]  : Symbol not previously defined (CEXreg)
Error[152]  : Executable code and data must be defined in an appropriate section
000000                01224                 MOVFF   TABLAT,CEXreg+1
Error[151]  : Operand contains unresolvable labels or is too complex
Error[152]  : Executable code and data must be defined in an appropriate section
Error[152]  : Executable code and data must be defined in an appropriate section
000000                01225                 GOTO    SelectChannel4
                      01226         ; Check for Option button
Error[150]  : Labels must be defined in a code or data section when making an object file
000000                01227 SelectChannel3
Error[151]  : Operand contains unresolvable labels or is too complex
Error[152]  : Executable code and data must be defined in an appropriate section
Error[152]  : Executable code and data must be defined in an appropriate section
000000                01228                 CALL    CalSaveAndExit
Warning[207]: Found label after column 1. (CALLF)
Error[122]  : Illegal opcode (Option)
000000                01229                 CALLF   Option
Error[113]  : Symbol not previously defined (C)
Error[113]  : Symbol not previously defined (ALUSTA)
Error[152]  : Executable code and data must be defined in an appropriate section
000000                01230                 BTFSS   ALUSTA,C
Error[151]  : Operand contains unresolvable labels or is too complex
Error[152]  : Executable code and data must be defined in an appropriate section
Error[152]  : Executable code and data must be defined in an appropriate section
000000                01231                 GOTO    SelectChannel4
                      01232         ; The option button  has been pressed. Advance the table
                      01233         ; pointer to the parameters at the end of the record.
Error[152]  : Executable code and data must be defined in an appropriate section
000000                01234                 MOVLW   D'9'
Error[113]  : Symbol not previously defined (CEXreg)
Error[152]  : Executable code and data must be defined in an appropriate section
000000                01235                 ADDWF   CEXreg
Error[113]  : Symbol not previously defined (C)
Error[113]  : Symbol not previously defined (ALUSTA)
Error[152]  : Executable code and data must be defined in an appropriate section
000000                01236                 BTFSC   ALUSTA,C
Error[113]  : Symbol not previously defined (CEXreg)
Error[152]  : Executable code and data must be defined in an appropriate section
000000                01237                 INCF    CEXreg+1
                      01238                 ; Load CEXreg into the table pointer
Error[113]  : Symbol not previously defined (CEXreg)
Error[152]  : Executable code and data must be defined in an appropriate section
Error[113]  : Symbol not previously defined (TBLPTRL)
Error[152]  : Executable code and data must be defined in an appropriate section
000000                01239                 MOVFF   CEXreg,TBLPTRL
Error[113]  : Symbol not previously defined (CEXreg)
Error[152]  : Executable code and data must be defined in an appropriate section
Error[113]  : Symbol not previously defined (TBLPTRH)
Error[152]  : Executable code and data must be defined in an appropriate section
MPASM  5.37                            UI.ASM   8-24-2010  6:19:47         PAGE 64


LOC  OBJECT CODE     LINE SOURCE TEXT
  VALUE

000000                01240                 MOVFF   CEXreg+1,TBLPTRH
Error[113]  : Symbol not previously defined (TBLPTRU)
Error[152]  : Executable code and data must be defined in an appropriate section
000000                01241                 CLRF    TBLPTRU
                      01242                 ; Load the variable...
Error[152]  : Executable code and data must be defined in an appropriate section
000000                01243                 TBLRD*+
Error[113]  : Symbol not previously defined (TABLAT)
Error[152]  : Executable code and data must be defined in an appropriate section
Error[113]  : Symbol not previously defined (WREG)
Error[152]  : Executable code and data must be defined in an appropriate section
000000                01244                 MOVFF   TABLAT,WREG     ; LSB
Error[152]  : Executable code and data must be defined in an appropriate section
000000                01245                 RETURN
                      01246 
                      01247 ; This function tests the position of the Aileron stick. The aileron
                      01248 ; center position is read on powerup and saved in AilCenter, this value
                      01249 ; is used by this routine.
                      01250 ;
                      01251 ; The status is returned in the C and Z flags:
                      01252 ;    C set for Left
                      01253 ;    Z set for Right
Error[150]  : Labels must be defined in a code or data section when making an object file
000000                01254 Aileron
                      01255         ; Read ADC channel 4
Warning[207]: Found label after column 1. (CALLFL)
Error[122]  : Illegal opcode (ADCread)
                      01256                 CALLFL  ADCread,ADCail
Warning[207]: Found label after column 1. (CALLFL)
Error[122]  : Illegal opcode (ADCread)
                      01257                 CALLFL  ADCread,ADCail
                      01258         ; Subtract the center position, and save the result in the ADC regs
Error[113]  : Symbol not previously defined (AilCenter)
Error[152]  : Executable code and data must be defined in an appropriate section
Error[113]  : Symbol not previously defined (WREG)
Error[152]  : Executable code and data must be defined in an appropriate section
000000                01259                 MOVFF   AilCenter,WREG
Error[113]  : Symbol not previously defined (ADRESL)
Error[113]  : Symbol not previously defined (A)
Error[152]  : Executable code and data must be defined in an appropriate section
000000                01260                 SUBWF   ADRESL,F,A
Error[113]  : Symbol not previously defined (AilCenter)
Error[152]  : Executable code and data must be defined in an appropriate section
Error[113]  : Symbol not previously defined (WREG)
Error[152]  : Executable code and data must be defined in an appropriate section
000000                01261                 MOVFF   AilCenter+1,WREG
Error[113]  : Symbol not previously defined (ADRESH)
Error[113]  : Symbol not previously defined (A)
Error[152]  : Executable code and data must be defined in an appropriate section
000000                01262                 SUBWFB  ADRESH,F,A
                      01263         ; If positive then Left...
Error[113]  : Symbol not previously defined (ADRESH)
Error[113]  : Symbol not previously defined (A)
MPASM  5.37                            UI.ASM   8-24-2010  6:19:47         PAGE 65


LOC  OBJECT CODE     LINE SOURCE TEXT
  VALUE

Error[152]  : Executable code and data must be defined in an appropriate section
000000                01264                 BTFSC   ADRESH,7,A
Error[151]  : Operand contains unresolvable labels or is too complex
Error[152]  : Executable code and data must be defined in an appropriate section
Error[152]  : Executable code and data must be defined in an appropriate section
000000                01265                 GOTO    Aileron1
                      01266                 ; Now subtract the threshold value
Error[113]  : Symbol not previously defined (StickThres)
Error[152]  : Executable code and data must be defined in an appropriate section
000000                01267                 MOVLW   LOW StickThres
Error[113]  : Symbol not previously defined (ADRESL)
Error[113]  : Symbol not previously defined (A)
Error[152]  : Executable code and data must be defined in an appropriate section
000000                01268                 SUBWF   ADRESL,F,A
Error[113]  : Symbol not previously defined (StickThres)
Error[152]  : Executable code and data must be defined in an appropriate section
000000                01269                 MOVLW   HIGH StickThres
Error[113]  : Symbol not previously defined (ADRESH)
Error[113]  : Symbol not previously defined (A)
Error[152]  : Executable code and data must be defined in an appropriate section
000000                01270                 SUBWFB  ADRESH,F,A
                      01271                 ; If its Positive then clear flags and exit
Error[113]  : Symbol not previously defined (ADRESH)
Error[113]  : Symbol not previously defined (A)
Error[152]  : Executable code and data must be defined in an appropriate section
000000                01272                 BTFSC   ADRESH,7,A
Error[151]  : Operand contains unresolvable labels or is too complex
Error[152]  : Executable code and data must be defined in an appropriate section
Error[152]  : Executable code and data must be defined in an appropriate section
000000                01273                 GOTO    Aileron2
Error[113]  : Symbol not previously defined (Z)
Error[113]  : Symbol not previously defined (ALUSTA)
Error[113]  : Symbol not previously defined (A)
Error[152]  : Executable code and data must be defined in an appropriate section
000000                01274                 BSF     ALUSTA,Z,A
Error[113]  : Symbol not previously defined (C)
Error[113]  : Symbol not previously defined (ALUSTA)
Error[113]  : Symbol not previously defined (A)
Error[152]  : Executable code and data must be defined in an appropriate section
000000                01275                 BCF     ALUSTA,C,A
Error[152]  : Executable code and data must be defined in an appropriate section
000000                01276                 RETURN
Error[150]  : Labels must be defined in a code or data section when making an object file
000000                01277 Aileron1
                      01278         ; if negative then right
                      01279                 ; Now add the threshold value
Error[113]  : Symbol not previously defined (StickThres)
Error[152]  : Executable code and data must be defined in an appropriate section
000000                01280                 MOVLW   LOW StickThres
Error[113]  : Symbol not previously defined (ADRESL)
Error[113]  : Symbol not previously defined (A)
Error[152]  : Executable code and data must be defined in an appropriate section
000000                01281                 ADDWF   ADRESL,F,A
MPASM  5.37                            UI.ASM   8-24-2010  6:19:47         PAGE 66


LOC  OBJECT CODE     LINE SOURCE TEXT
  VALUE

Error[113]  : Symbol not previously defined (StickThres)
Error[152]  : Executable code and data must be defined in an appropriate section
000000                01282                 MOVLW   HIGH StickThres
Error[113]  : Symbol not previously defined (ADRESH)
Error[113]  : Symbol not previously defined (A)
Error[152]  : Executable code and data must be defined in an appropriate section
000000                01283                 ADDWFC   ADRESH,F,A
                      01284                 ; If its negative then clear flags and exit
Error[113]  : Symbol not previously defined (ADRESH)
Error[113]  : Symbol not previously defined (A)
Error[152]  : Executable code and data must be defined in an appropriate section
000000                01285                 BTFSS   ADRESH,7,A
Error[151]  : Operand contains unresolvable labels or is too complex
Error[152]  : Executable code and data must be defined in an appropriate section
Error[152]  : Executable code and data must be defined in an appropriate section
000000                01286                 GOTO    Aileron2
Error[113]  : Symbol not previously defined (Z)
Error[113]  : Symbol not previously defined (ALUSTA)
Error[113]  : Symbol not previously defined (A)
Error[152]  : Executable code and data must be defined in an appropriate section
000000                01287                 BCF     ALUSTA,Z,A
Error[113]  : Symbol not previously defined (C)
Error[113]  : Symbol not previously defined (ALUSTA)
Error[113]  : Symbol not previously defined (A)
Error[152]  : Executable code and data must be defined in an appropriate section
000000                01288                 BSF     ALUSTA,C,A
Error[152]  : Executable code and data must be defined in an appropriate section
000000                01289                 RETURN
Error[150]  : Labels must be defined in a code or data section when making an object file
000000                01290 Aileron2
Error[113]  : Symbol not previously defined (Z)
Error[113]  : Symbol not previously defined (ALUSTA)
Error[113]  : Symbol not previously defined (A)
Error[152]  : Executable code and data must be defined in an appropriate section
000000                01291                 BCF     ALUSTA,Z,A
Error[113]  : Symbol not previously defined (C)
Error[113]  : Symbol not previously defined (ALUSTA)
Error[113]  : Symbol not previously defined (A)
Error[152]  : Executable code and data must be defined in an appropriate section
000000                01292                 BCF     ALUSTA,C,A
Error[152]  : Executable code and data must be defined in an appropriate section
000000                01293                 RETURN
                      01294 
                      01295 ; This function tests the position of the Elevator stick.
                      01296 ; The status is returned in the C and Z flags:
                      01297 ;    C set for DOWN
                      01298 ;    Z set for UP
Error[150]  : Labels must be defined in a code or data section when making an object file
000000                01299 Elevator
                      01300         ; Read ADC channel 5
Warning[207]: Found label after column 1. (CALLFL)
Error[122]  : Illegal opcode (ADCread)
                      01301                 CALLFL  ADCread,ADCele
MPASM  5.37                            UI.ASM   8-24-2010  6:19:47         PAGE 67


LOC  OBJECT CODE     LINE SOURCE TEXT
  VALUE

Warning[207]: Found label after column 1. (CALLFL)
Error[122]  : Illegal opcode (ADCread)
                      01302                 CALLFL  ADCread,ADCele
                      01303         ; Subtract the center position, and save the result in the ADC regs
Error[113]  : Symbol not previously defined (EleCenter)
Error[152]  : Executable code and data must be defined in an appropriate section
Error[113]  : Symbol not previously defined (WREG)
Error[152]  : Executable code and data must be defined in an appropriate section
000000                01304                 MOVFF   EleCenter,WREG
Error[113]  : Symbol not previously defined (ADRESL)
Error[113]  : Symbol not previously defined (A)
Error[152]  : Executable code and data must be defined in an appropriate section
000000                01305                 SUBWF   ADRESL,F,A
Error[113]  : Symbol not previously defined (EleCenter)
Error[152]  : Executable code and data must be defined in an appropriate section
Error[113]  : Symbol not previously defined (WREG)
Error[152]  : Executable code and data must be defined in an appropriate section
000000                01306                 MOVFF   EleCenter+1,WREG
Error[113]  : Symbol not previously defined (ADRESH)
Error[113]  : Symbol not previously defined (A)
Error[152]  : Executable code and data must be defined in an appropriate section
000000                01307                 SUBWFB  ADRESH,F,A
                      01308         ; If positive then UP...
Error[113]  : Symbol not previously defined (ADRESH)
Error[113]  : Symbol not previously defined (A)
Error[152]  : Executable code and data must be defined in an appropriate section
000000                01309                 BTFSC   ADRESH,7,A
Error[151]  : Operand contains unresolvable labels or is too complex
Error[152]  : Executable code and data must be defined in an appropriate section
Error[152]  : Executable code and data must be defined in an appropriate section
000000                01310                 GOTO    Elevator1
                      01311                 ; Now subtract the threshold value
Error[113]  : Symbol not previously defined (StickThres)
Error[152]  : Executable code and data must be defined in an appropriate section
000000                01312                 MOVLW   LOW StickThres
Error[113]  : Symbol not previously defined (ADRESL)
Error[113]  : Symbol not previously defined (A)
Error[152]  : Executable code and data must be defined in an appropriate section
000000                01313                 SUBWF   ADRESL,F,A
Error[113]  : Symbol not previously defined (StickThres)
Error[152]  : Executable code and data must be defined in an appropriate section
000000                01314                 MOVLW   HIGH StickThres
Error[113]  : Symbol not previously defined (ADRESH)
Error[113]  : Symbol not previously defined (A)
Error[152]  : Executable code and data must be defined in an appropriate section
000000                01315                 SUBWFB  ADRESH,F,A
                      01316                 ; If its negative then clear flags and exit
Error[113]  : Symbol not previously defined (ADRESH)
Error[113]  : Symbol not previously defined (A)
Error[152]  : Executable code and data must be defined in an appropriate section
000000                01317                 BTFSC   ADRESH,7,A
Error[151]  : Operand contains unresolvable labels or is too complex
Error[152]  : Executable code and data must be defined in an appropriate section
MPASM  5.37                            UI.ASM   8-24-2010  6:19:47         PAGE 68


LOC  OBJECT CODE     LINE SOURCE TEXT
  VALUE

Error[152]  : Executable code and data must be defined in an appropriate section
000000                01318                 GOTO    Elevator2
                      01319                 ; Save the value over the threshold for use in the variable value increment speed
Error[113]  : Symbol not previously defined (C)
Error[113]  : Symbol not previously defined (ALUSTA)
Error[113]  : Symbol not previously defined (A)
Error[152]  : Executable code and data must be defined in an appropriate section
000000                01320                 BCF     ALUSTA,C,A      ; Divide by 2
Error[113]  : Symbol not previously defined (ADRESH)
Error[113]  : Symbol not previously defined (A)
Error[152]  : Executable code and data must be defined in an appropriate section
000000                01321                 RRCF    ADRESH,F,A
Error[113]  : Symbol not previously defined (ADRESL)
Error[113]  : Symbol not previously defined (A)
Error[152]  : Executable code and data must be defined in an appropriate section
000000                01322                 RRCF    ADRESL,F,A
Error[113]  : Symbol not previously defined (C)
Error[113]  : Symbol not previously defined (ALUSTA)
Error[113]  : Symbol not previously defined (A)
Error[152]  : Executable code and data must be defined in an appropriate section
000000                01323                 BCF     ALUSTA,C,A      ; Divide by 2
Error[113]  : Symbol not previously defined (ADRESH)
Error[113]  : Symbol not previously defined (A)
Error[152]  : Executable code and data must be defined in an appropriate section
000000                01324                 RRCF    ADRESH,F,A
Error[113]  : Symbol not previously defined (ADRESL)
Error[113]  : Symbol not previously defined (A)
Error[152]  : Executable code and data must be defined in an appropriate section
000000                01325                 RRCF    ADRESL,F,A
                      01326                 
Error[113]  : Symbol not previously defined (ADRESH)
Error[113]  : Symbol not previously defined (A)
Error[152]  : Executable code and data must be defined in an appropriate section
000000                01327                 TSTFSZ  ADRESH,A
Error[113]  : Symbol not previously defined (ADRESL)
Error[113]  : Symbol not previously defined (A)
Error[152]  : Executable code and data must be defined in an appropriate section
000000                01328                 SETF    ADRESL,A
Error[113]  : Symbol not previously defined (ADRESL)
Error[152]  : Executable code and data must be defined in an appropriate section
Error[113]  : Symbol not previously defined (IncTime)
Error[152]  : Executable code and data must be defined in an appropriate section
000000                01329                 MOVFF   ADRESL,IncTime
Error[113]  : Symbol not previously defined (Z)
Error[113]  : Symbol not previously defined (ALUSTA)
Error[113]  : Symbol not previously defined (A)
Error[152]  : Executable code and data must be defined in an appropriate section
000000                01330                 BSF     ALUSTA,Z,A
Error[113]  : Symbol not previously defined (C)
Error[113]  : Symbol not previously defined (ALUSTA)
Error[113]  : Symbol not previously defined (A)
Error[152]  : Executable code and data must be defined in an appropriate section
000000                01331                 BCF     ALUSTA,C,A
MPASM  5.37                            UI.ASM   8-24-2010  6:19:47         PAGE 69


LOC  OBJECT CODE     LINE SOURCE TEXT
  VALUE

Error[152]  : Executable code and data must be defined in an appropriate section
000000                01332                 RETURN
Error[150]  : Labels must be defined in a code or data section when making an object file
000000                01333 Elevator1
                      01334         ; if negative then DOWN
                      01335                 ; Now add the threshold value
Error[113]  : Symbol not previously defined (StickThres)
Error[152]  : Executable code and data must be defined in an appropriate section
000000                01336                 MOVLW   LOW StickThres
Error[113]  : Symbol not previously defined (ADRESL)
Error[113]  : Symbol not previously defined (A)
Error[152]  : Executable code and data must be defined in an appropriate section
000000                01337                 ADDWF   ADRESL,F,A
Error[113]  : Symbol not previously defined (StickThres)
Error[152]  : Executable code and data must be defined in an appropriate section
000000                01338                 MOVLW   HIGH StickThres
Error[113]  : Symbol not previously defined (ADRESH)
Error[113]  : Symbol not previously defined (A)
Error[152]  : Executable code and data must be defined in an appropriate section
000000                01339                 ADDWFC  ADRESH,F,A
                      01340                 ; If its positive then clear flags and exit
Error[113]  : Symbol not previously defined (ADRESH)
Error[113]  : Symbol not previously defined (A)
Error[152]  : Executable code and data must be defined in an appropriate section
000000                01341                 BTFSS   ADRESH,7,A
Error[151]  : Operand contains unresolvable labels or is too complex
Error[152]  : Executable code and data must be defined in an appropriate section
Error[152]  : Executable code and data must be defined in an appropriate section
000000                01342                 GOTO    Elevator2
                      01343                 ; Save the value over the threshold for use in the variable value increment speed
Error[113]  : Symbol not previously defined (C)
Error[113]  : Symbol not previously defined (ALUSTA)
Error[113]  : Symbol not previously defined (A)
Error[152]  : Executable code and data must be defined in an appropriate section
000000                01344                 BSF     ALUSTA,C,A      ; Divide by 2
Error[113]  : Symbol not previously defined (ADRESH)
Error[113]  : Symbol not previously defined (A)
Error[152]  : Executable code and data must be defined in an appropriate section
000000                01345                 RRCF    ADRESH,F,A
Error[113]  : Symbol not previously defined (ADRESL)
Error[113]  : Symbol not previously defined (A)
Error[152]  : Executable code and data must be defined in an appropriate section
000000                01346                 RRCF    ADRESL,F,A
Error[113]  : Symbol not previously defined (C)
Error[113]  : Symbol not previously defined (ALUSTA)
Error[113]  : Symbol not previously defined (A)
Error[152]  : Executable code and data must be defined in an appropriate section
000000                01347                 BSF     ALUSTA,C,A      ; Divide by 2
Error[113]  : Symbol not previously defined (ADRESH)
Error[113]  : Symbol not previously defined (A)
Error[152]  : Executable code and data must be defined in an appropriate section
000000                01348                 RRCF    ADRESH,F,A
Error[113]  : Symbol not previously defined (ADRESL)
MPASM  5.37                            UI.ASM   8-24-2010  6:19:47         PAGE 70


LOC  OBJECT CODE     LINE SOURCE TEXT
  VALUE

Error[113]  : Symbol not previously defined (A)
Error[152]  : Executable code and data must be defined in an appropriate section
000000                01349                 RRCF    ADRESL,F,A
                      01350 
Error[113]  : Symbol not previously defined (ADRESL)
Error[113]  : Symbol not previously defined (A)
Error[152]  : Executable code and data must be defined in an appropriate section
000000                01351                 COMF    ADRESL,F,A
Error[113]  : Symbol not previously defined (ADRESH)
Error[113]  : Symbol not previously defined (A)
Error[152]  : Executable code and data must be defined in an appropriate section
000000                01352                 COMF    ADRESH,F,A
Error[113]  : Symbol not previously defined (ADRESH)
Error[113]  : Symbol not previously defined (A)
Error[152]  : Executable code and data must be defined in an appropriate section
000000                01353                 TSTFSZ  ADRESH,A
Error[113]  : Symbol not previously defined (ADRESL)
Error[113]  : Symbol not previously defined (A)
Error[152]  : Executable code and data must be defined in an appropriate section
000000                01354                 SETF    ADRESL,A
Error[113]  : Symbol not previously defined (ADRESL)
Error[152]  : Executable code and data must be defined in an appropriate section
Error[113]  : Symbol not previously defined (IncTime)
Error[152]  : Executable code and data must be defined in an appropriate section
000000                01355                 MOVFF   ADRESL,IncTime
Error[113]  : Symbol not previously defined (Z)
Error[113]  : Symbol not previously defined (ALUSTA)
Error[113]  : Symbol not previously defined (A)
Error[152]  : Executable code and data must be defined in an appropriate section
000000                01356                 BCF     ALUSTA,Z,A
Error[113]  : Symbol not previously defined (C)
Error[113]  : Symbol not previously defined (ALUSTA)
Error[113]  : Symbol not previously defined (A)
Error[152]  : Executable code and data must be defined in an appropriate section
000000                01357                 BSF     ALUSTA,C,A
Error[152]  : Executable code and data must be defined in an appropriate section
000000                01358                 RETURN
Error[150]  : Labels must be defined in a code or data section when making an object file
000000                01359 Elevator2
Error[113]  : Symbol not previously defined (Z)
Error[113]  : Symbol not previously defined (ALUSTA)
Error[113]  : Symbol not previously defined (A)
Error[152]  : Executable code and data must be defined in an appropriate section
000000                01360                 BCF     ALUSTA,Z,A
Error[113]  : Symbol not previously defined (C)
Error[113]  : Symbol not previously defined (ALUSTA)
Error[113]  : Symbol not previously defined (A)
Error[152]  : Executable code and data must be defined in an appropriate section
000000                01361                 BCF     ALUSTA,C,A
Error[152]  : Executable code and data must be defined in an appropriate section
000000                01362                 RETURN
                      01363 
                      01364                      
MPASM  5.37                            UI.ASM   8-24-2010  6:19:47         PAGE 71


LOC  OBJECT CODE     LINE SOURCE TEXT
  VALUE

                      01365 
                      01366 ; This section contains the routines that support each of the calibration
                      01367 ; options. 
                      01368 
                      01369 ;***************
Error[150]  : Labels must be defined in a code or data section when making an object file
000000                01370 CalSelectAircraft
                      01371 ;***************
Error[151]  : Operand contains unresolvable labels or is too complex
Error[152]  : Executable code and data must be defined in an appropriate section
Error[152]  : Executable code and data must be defined in an appropriate section
000000                01372                 GOTO    SelectAircraft
                      01373 
                      01374 ;***************
Error[150]  : Labels must be defined in a code or data section when making an object file
000000                01375 CalAircraftName
                      01376 ;***************
Warning[207]: Found label after column 1. (CALLFL)
Error[122]  : Illegal opcode (LCDsendCMD)
                      01377                 CALLFL  LCDsendCMD,LINE1
Warning[207]: Found label after column 1. (PrintMess)
Error[122]  : Illegal opcode (CALMES2)
                      01378                 PrintMess CALMES2
Error[151]  : Operand contains unresolvable labels or is too complex
Error[152]  : Executable code and data must be defined in an appropriate section
Error[152]  : Executable code and data must be defined in an appropriate section
000000                01379                 GOTO    AircraftName
                      01380 
                      01381 ;***************
Error[150]  : Labels must be defined in a code or data section when making an object file
000000                01382 CalTimer
                      01383 ;***************
Warning[207]: Found label after column 1. (MOVEC)
Error[122]  : Illegal opcode (CALMES3)
                      01384                 MOVEC   CALMES3,CalOption
Warning[207]: Found label after column 1. (MOVEC)
Error[122]  : Illegal opcode (MTIMER1)
                      01385                 MOVEC   MTIMER1,CalMenu
Error[151]  : Operand contains unresolvable labels or is too complex
Error[152]  : Executable code and data must be defined in an appropriate section
Error[152]  : Executable code and data must be defined in an appropriate section
000000                01386                 CALL    CalUI
                      01387         ; Save the parameters and exit
Error[150]  : Labels must be defined in a code or data section when making an object file
000000                01388 CalSaveExit
Warning[207]: Found label after column 1. (CALLF)
Error[122]  : Illegal opcode (SaveGeneral)
000000                01389                 CALLF   SaveGeneral
Error[113]  : Symbol not previously defined (Aircraft)
Error[152]  : Executable code and data must be defined in an appropriate section
Error[113]  : Symbol not previously defined (WREG)
Error[152]  : Executable code and data must be defined in an appropriate section
000000                01390                 MOVFF   Aircraft,WREG   ; Load aircraft number
MPASM  5.37                            UI.ASM   8-24-2010  6:19:47         PAGE 72


LOC  OBJECT CODE     LINE SOURCE TEXT
  VALUE

Error[113]  : Symbol not previously defined (SaveAircraft)
Error[152]  : Executable code and data must be defined in an appropriate section
Error[152]  : Executable code and data must be defined in an appropriate section
000000                01391                 CALL    SaveAircraft
Error[113]  : Symbol not previously defined (BackupAircraft)
Error[152]  : Executable code and data must be defined in an appropriate section
Error[152]  : Executable code and data must be defined in an appropriate section
000000                01392                 CALL    BackupAircraft
Error[152]  : Executable code and data must be defined in an appropriate section
000000                01393                 RETURN
                      01394 
                      01395 ;***************
Error[150]  : Labels must be defined in a code or data section when making an object file
000000                01396 CalSnap
                      01397 ;***************
Warning[207]: Found label after column 1. (MOVEC)
Error[122]  : Illegal opcode (CALMES4)
                      01398                 MOVEC   CALMES4,CalOption
Warning[207]: Found label after column 1. (MOVEC)
Error[122]  : Illegal opcode (SNAP1)
                      01399                 MOVEC   SNAP1,CalMenu
Error[151]  : Operand contains unresolvable labels or is too complex
Error[152]  : Executable code and data must be defined in an appropriate section
Error[152]  : Executable code and data must be defined in an appropriate section
000000                01400                 CALL    CalUI
Error[151]  : Operand contains unresolvable labels or is too complex
Error[152]  : Executable code and data must be defined in an appropriate section
Error[152]  : Executable code and data must be defined in an appropriate section
000000                01401                 GOTO    CalSaveExit
                      01402 
                      01403 ;***************
Error[150]  : Labels must be defined in a code or data section when making an object file
000000                01404 CalServos
                      01405 ;***************
Warning[207]: Found label after column 1. (MOVEC)
Error[122]  : Illegal opcode (CALMES5)
                      01406                 MOVEC   CALMES5,CalOption
Warning[207]: Found label after column 1. (MOVEC)
Error[122]  : Illegal opcode (SCHNMES1)
                      01407                 MOVEC   SCHNMES1,CalMenu
Error[151]  : Operand contains unresolvable labels or is too complex
Error[152]  : Executable code and data must be defined in an appropriate section
Error[152]  : Executable code and data must be defined in an appropriate section
000000                01408                 CALL    CalUI
Error[151]  : Operand contains unresolvable labels or is too complex
Error[152]  : Executable code and data must be defined in an appropriate section
Error[152]  : Executable code and data must be defined in an appropriate section
000000                01409                 GOTO    CalSaveExit
                      01410                 
                      01411 ;***************
Error[150]  : Labels must be defined in a code or data section when making an object file
000000                01412 CalMixers
                      01413 ;***************
MPASM  5.37                            UI.ASM   8-24-2010  6:19:47         PAGE 73


LOC  OBJECT CODE     LINE SOURCE TEXT
  VALUE

Warning[207]: Found label after column 1. (MOVEC)
Error[122]  : Illegal opcode (CALMES6)
                      01414                 MOVEC   CALMES6,CalOption
Warning[207]: Found label after column 1. (MOVEC)
Error[122]  : Illegal opcode (FMIX1)
                      01415                 MOVEC   FMIX1,CalMenu
Error[151]  : Operand contains unresolvable labels or is too complex
Error[152]  : Executable code and data must be defined in an appropriate section
Error[152]  : Executable code and data must be defined in an appropriate section
000000                01416                 CALL    CalUI
Error[151]  : Operand contains unresolvable labels or is too complex
Error[152]  : Executable code and data must be defined in an appropriate section
Error[152]  : Executable code and data must be defined in an appropriate section
000000                01417                 GOTO    CalSaveExit
                      01418                 
                      01419 ;***************
Error[150]  : Labels must be defined in a code or data section when making an object file
000000                01420 CalSwitch
                      01421 ;***************
Warning[207]: Found label after column 1. (MOVEC)
Error[122]  : Illegal opcode (CALMES7)
                      01422                 MOVEC   CALMES7,CalOption
Warning[207]: Found label after column 1. (MOVEC)
Error[122]  : Illegal opcode (SWFUN1)
                      01423                 MOVEC   SWFUN1,CalMenu
Error[151]  : Operand contains unresolvable labels or is too complex
Error[152]  : Executable code and data must be defined in an appropriate section
Error[152]  : Executable code and data must be defined in an appropriate section
000000                01424                 CALL    CalUI
Error[151]  : Operand contains unresolvable labels or is too complex
Error[152]  : Executable code and data must be defined in an appropriate section
Error[152]  : Executable code and data must be defined in an appropriate section
000000                01425                 GOTO    CalSaveExit
                      01426                 
                      01427 ;***************
Error[150]  : Labels must be defined in a code or data section when making an object file
000000                01428 CalOptions
                      01429 ;***************
Warning[207]: Found label after column 1. (MOVLR)
Error[122]  : Illegal opcode (HIGH)
                      01430                 MOVLR   HIGH Mto
Error[113]  : Symbol not previously defined (Mto)
Error[152]  : Executable code and data must be defined in an appropriate section
000000                01431                 CLRF    Mto
Warning[207]: Found label after column 1. (MOVEC)
Error[122]  : Illegal opcode (CALMES8)
000000                01432                 MOVEC   CALMES8,CalOption
Warning[207]: Found label after column 1. (MOVEC)
Error[122]  : Illegal opcode (COP1)
000000                01433                 MOVEC   COP1,CalMenu
Error[151]  : Operand contains unresolvable labels or is too complex
Error[152]  : Executable code and data must be defined in an appropriate section
Error[152]  : Executable code and data must be defined in an appropriate section
MPASM  5.37                            UI.ASM   8-24-2010  6:19:47         PAGE 74


LOC  OBJECT CODE     LINE SOURCE TEXT
  VALUE

000000                01434                 CALL    CalUI
Error[151]  : Operand contains unresolvable labels or is too complex
Error[152]  : Executable code and data must be defined in an appropriate section
Error[152]  : Executable code and data must be defined in an appropriate section
000000                01435                 GOTO    CalSaveExit
                      01436                 
                      01437 ;***************
Error[150]  : Labels must be defined in a code or data section when making an object file
000000                01438 CalSystemSetup
                      01439 ;***************
Warning[207]: Found label after column 1. (MOVEC)
Error[122]  : Illegal opcode (CALMES10)
                      01440                 MOVEC   CALMES10,CalOption
Warning[207]: Found label after column 1. (MOVEC)
Error[122]  : Illegal opcode (SYS1)
                      01441                 MOVEC   SYS1,CalMenu
Error[151]  : Operand contains unresolvable labels or is too complex
Error[152]  : Executable code and data must be defined in an appropriate section
Error[152]  : Executable code and data must be defined in an appropriate section
000000                01442                 CALL    CalUI
Error[151]  : Operand contains unresolvable labels or is too complex
Error[152]  : Executable code and data must be defined in an appropriate section
Error[152]  : Executable code and data must be defined in an appropriate section
000000                01443                 GOTO    CalSaveExit
                      01444                 
                      01445 ;***************
Error[150]  : Labels must be defined in a code or data section when making an object file
000000                01446 CalSelectFrequency
                      01447 ;***************
Error[151]  : Operand contains unresolvable labels or is too complex
Error[152]  : Executable code and data must be defined in an appropriate section
Error[152]  : Executable code and data must be defined in an appropriate section
000000                01448                 GOTO    SelectFrequency
                      01449                 
                      01450 ;***************
Error[150]  : Labels must be defined in a code or data section when making an object file
000000                01451 CalAdvanced
                      01452 ;***************
Warning[207]: Found label after column 1. (MOVEC)
Error[122]  : Illegal opcode (CALMES12)
                      01453                 MOVEC   CALMES12,CalOption
Warning[207]: Found label after column 1. (MOVEC)
Error[122]  : Illegal opcode (ADV1)
                      01454                 MOVEC   ADV1,CalMenu
Error[151]  : Operand contains unresolvable labels or is too complex
Error[152]  : Executable code and data must be defined in an appropriate section
Error[152]  : Executable code and data must be defined in an appropriate section
000000                01455                 CALL    CalUI
Error[151]  : Operand contains unresolvable labels or is too complex
Error[152]  : Executable code and data must be defined in an appropriate section
Error[152]  : Executable code and data must be defined in an appropriate section
000000                01456                 GOTO    CalSaveExit
                      01457 
MPASM  5.37                            UI.ASM   8-24-2010  6:19:47         PAGE 75


LOC  OBJECT CODE     LINE SOURCE TEXT
  VALUE

                      01458 ;***************
Error[150]  : Labels must be defined in a code or data section when making an object file
000000                01459 CalHelicopter
                      01460 ;***************
                      01461         ; Move all the table pointers to the lower nibble for the UI routines
Error[113]  : Symbol not previously defined (HTht)
Error[152]  : Executable code and data must be defined in an appropriate section
000000                01462                 MOVLB   HIGH HTht
Error[113]  : Symbol not previously defined (HTht)
Error[152]  : Executable code and data must be defined in an appropriate section
000000                01463                 SWAPF   HTht
Error[113]  : Symbol not previously defined (HPitch)
Error[152]  : Executable code and data must be defined in an appropriate section
000000                01464                 SWAPF   HPitch
Error[113]  : Symbol not previously defined (HthtPitch)
Error[152]  : Executable code and data must be defined in an appropriate section
000000                01465                 SWAPF   HthtPitch
Error[113]  : Symbol not previously defined (Hst1Tht)
Error[152]  : Executable code and data must be defined in an appropriate section
000000                01466                 SWAPF   Hst1Tht
Error[113]  : Symbol not previously defined (Hst1Pitch)
Error[152]  : Executable code and data must be defined in an appropriate section
000000                01467                 SWAPF   Hst1Pitch
Error[113]  : Symbol not previously defined (Hst2Tht)
Error[152]  : Executable code and data must be defined in an appropriate section
000000                01468                 SWAPF   Hst2Tht
Error[113]  : Symbol not previously defined (Hst2Pitch)
Error[152]  : Executable code and data must be defined in an appropriate section
000000                01469                 SWAPF   Hst2Pitch
                      01470         ; Call the UI routines
Warning[207]: Found label after column 1. (MOVEC)
Error[122]  : Illegal opcode (CALMES13)
                      01471                 MOVEC   CALMES13,CalOption
Warning[207]: Found label after column 1. (MOVEC)
Error[122]  : Illegal opcode (HELI1)
                      01472                 MOVEC   HELI1,CalMenu
Error[151]  : Operand contains unresolvable labels or is too complex
Error[152]  : Executable code and data must be defined in an appropriate section
Error[152]  : Executable code and data must be defined in an appropriate section
000000                01473                 CALL    CalUI
                      01474         ; Move all the table pointers to the high nibble for the run time code
Error[113]  : Symbol not previously defined (HTht)
Error[152]  : Executable code and data must be defined in an appropriate section
000000                01475                 MOVLB   HIGH HTht
Error[113]  : Symbol not previously defined (HTht)
Error[152]  : Executable code and data must be defined in an appropriate section
000000                01476                 SWAPF   HTht
Error[113]  : Symbol not previously defined (HPitch)
Error[152]  : Executable code and data must be defined in an appropriate section
000000                01477                 SWAPF   HPitch
Error[113]  : Symbol not previously defined (HthtPitch)
Error[152]  : Executable code and data must be defined in an appropriate section
000000                01478                 SWAPF   HthtPitch
MPASM  5.37                            UI.ASM   8-24-2010  6:19:47         PAGE 76


LOC  OBJECT CODE     LINE SOURCE TEXT
  VALUE

Error[113]  : Symbol not previously defined (Hst1Tht)
Error[152]  : Executable code and data must be defined in an appropriate section
000000                01479                 SWAPF   Hst1Tht
Error[113]  : Symbol not previously defined (Hst1Pitch)
Error[152]  : Executable code and data must be defined in an appropriate section
000000                01480                 SWAPF   Hst1Pitch
Error[113]  : Symbol not previously defined (Hst2Tht)
Error[152]  : Executable code and data must be defined in an appropriate section
000000                01481                 SWAPF   Hst2Tht
Error[113]  : Symbol not previously defined (Hst2Pitch)
Error[152]  : Executable code and data must be defined in an appropriate section
000000                01482                 SWAPF   Hst2Pitch
                      01483         ; Done!
Error[151]  : Operand contains unresolvable labels or is too complex
Error[152]  : Executable code and data must be defined in an appropriate section
Error[152]  : Executable code and data must be defined in an appropriate section
000000                01484                 GOTO    CalSaveExit
                      01485                 
                      01486 
                      01487 
                      01488 ; This is the generic calibration user interface processing routine.
                      01489 ; This function will allow menu nesting up to three levels. This function
                      01490 ; is called after the user select the option he wishes to use. All of the
                      01491 ; selected option's parameters are processed my this code. 
Error[150]  : Labels must be defined in a code or data section when making an object file
000000                01492 CalUI               
                      01493         ; Display the Calibration Selection
Error[151]  : Operand contains unresolvable labels or is too complex
Error[152]  : Executable code and data must be defined in an appropriate section
Error[152]  : Executable code and data must be defined in an appropriate section
000000                01494                 CALL    DisplayCalibration
                      01495         ; Load menu pointer              
Warning[207]: Found label after column 1. (MOVE16)
Error[122]  : Illegal opcode (CalMenu)
                      01496                 MOVE16  CalMenu,AXreg
Error[151]  : Operand contains unresolvable labels or is too complex
Error[152]  : Executable code and data must be defined in an appropriate section
Error[152]  : Executable code and data must be defined in an appropriate section
000000                01497                 CALL    SelectionFunction
Warning[207]: Found label after column 1. (MOVE16)
Error[122]  : Illegal opcode (AXreg)
000000                01498                 MOVE16  AXreg,CalMenu  
Warning[207]: Found label after column 1. (MOVE16)
Error[122]  : Illegal opcode (PostCall)
000000                01499                 MOVE16  PostCall,PostCallLevel1
                      01500                 ; If CXreg contains 9, then BXreg points to another selection table
Error[113]  : Symbol not previously defined (CXreg)
Error[152]  : Executable code and data must be defined in an appropriate section
000000                01501                 MOVLB   HIGH CXreg
Error[113]  : Symbol not previously defined (CXreg)
Error[113]  : Symbol not previously defined (WREG)
Error[152]  : Executable code and data must be defined in an appropriate section
000000                01502                 MOVF    CXreg,WREG
MPASM  5.37                            UI.ASM   8-24-2010  6:19:47         PAGE 77


LOC  OBJECT CODE     LINE SOURCE TEXT
  VALUE

Error[152]  : Executable code and data must be defined in an appropriate section
000000                01503                 XORLW   9
Error[113]  : Symbol not previously defined (Z)
Error[113]  : Symbol not previously defined (ALUSTA)
Error[113]  : Symbol not previously defined (A)
Error[152]  : Executable code and data must be defined in an appropriate section
000000                01504                 BTFSS   ALUSTA,Z,A
Error[151]  : Operand contains unresolvable labels or is too complex
Error[152]  : Executable code and data must be defined in an appropriate section
Error[152]  : Executable code and data must be defined in an appropriate section
000000                01505                 GOTO    CUI2
                      01506                 ; Here to process a selection table, nesting level of 2
Warning[207]: Found label after column 1. (MOVE16)
Error[122]  : Illegal opcode (BXreg)
                      01507                  MOVE16 BXreg,AXreg
Error[150]  : Labels must be defined in a code or data section when making an object file
000000                01508 CUI3
Error[151]  : Operand contains unresolvable labels or is too complex
Error[152]  : Executable code and data must be defined in an appropriate section
Error[152]  : Executable code and data must be defined in an appropriate section
000000                01509                  CALL   SelectionFunction 
Warning[207]: Found label after column 1. (MOVE16)
Error[122]  : Illegal opcode (AXreg)
000000                01510                  MOVE16 AXreg,CalMenu1 
Warning[207]: Found label after column 1. (MOVE16)
Error[122]  : Illegal opcode (PostCall)
000000                01511                  MOVE16 PostCall,PostCallLevel2
                      01512                  ; If CXreg contains 9, then BXreg points to another selection table
Error[113]  : Symbol not previously defined (CXreg)
Error[152]  : Executable code and data must be defined in an appropriate section
000000                01513                  MOVLB  HIGH CXreg
Error[113]  : Symbol not previously defined (CXreg)
Error[113]  : Symbol not previously defined (WREG)
Error[152]  : Executable code and data must be defined in an appropriate section
000000                01514                  MOVF   CXreg,WREG
Error[152]  : Executable code and data must be defined in an appropriate section
000000                01515                  XORLW  9
Error[113]  : Symbol not previously defined (Z)
Error[113]  : Symbol not previously defined (ALUSTA)
Error[113]  : Symbol not previously defined (A)
Error[152]  : Executable code and data must be defined in an appropriate section
000000                01516                  BTFSS  ALUSTA,Z,A
Error[151]  : Operand contains unresolvable labels or is too complex
Error[152]  : Executable code and data must be defined in an appropriate section
Error[152]  : Executable code and data must be defined in an appropriate section
000000                01517                  GOTO   CUI4
                      01518                  ; Here to process a selection table, nesting level of 3
Warning[207]: Found label after column 1. (MOVE16)
Error[122]  : Illegal opcode (BXreg)
                      01519                  MOVE16 BXreg,AXreg
Error[150]  : Labels must be defined in a code or data section when making an object file
000000                01520 CUI5
Error[151]  : Operand contains unresolvable labels or is too complex
MPASM  5.37                            UI.ASM   8-24-2010  6:19:47         PAGE 78


LOC  OBJECT CODE     LINE SOURCE TEXT
  VALUE

Error[152]  : Executable code and data must be defined in an appropriate section
Error[152]  : Executable code and data must be defined in an appropriate section
000000                01521                  CALL   SelectionFunction 
Warning[207]: Found label after column 1. (MOVE16)
Error[122]  : Illegal opcode (AXreg)
000000                01522                  MOVE16 AXreg,CalMenu2 
Warning[207]: Found label after column 1. (MOVE16)
Error[122]  : Illegal opcode (PostCall)
000000                01523                  MOVE16 PostCall,PostCallLevel3
Error[151]  : Operand contains unresolvable labels or is too complex
Error[152]  : Executable code and data must be defined in an appropriate section
Error[152]  : Executable code and data must be defined in an appropriate section
000000                01524                  CALL   Input 
                      01525                  ; If EXIT flag is exit, RETURN 
Error[113]  : Symbol not previously defined (EXIT)
Error[152]  : Executable code and data must be defined in an appropriate section
000000                01526                  MOVLB  HIGH EXIT
Error[113]  : Symbol not previously defined (EXIT)
Error[152]  : Executable code and data must be defined in an appropriate section
000000                01527                  BTFSC  EXIT,0
Error[151]  : Operand contains unresolvable labels or is too complex
Error[152]  : Executable code and data must be defined in an appropriate section
Error[152]  : Executable code and data must be defined in an appropriate section
000000                01528                  GOTO   CUI4a 
Warning[207]: Found label after column 1. (MOVE16)
Error[122]  : Illegal opcode (PostCallLevel3)
000000                01529                  MOVE16 PostCallLevel3,BXreg
Error[151]  : Operand contains unresolvable labels or is too complex
Error[152]  : Executable code and data must be defined in an appropriate section
Error[152]  : Executable code and data must be defined in an appropriate section
000000                01530                  CALL   CallBXreg 
Warning[207]: Found label after column 1. (MOVE16)
Error[122]  : Illegal opcode (CalMenu2)
000000                01531                  MOVE16 CalMenu2,AXreg    
Error[151]  : Operand contains unresolvable labels or is too complex
Error[152]  : Executable code and data must be defined in an appropriate section
Error[152]  : Executable code and data must be defined in an appropriate section
000000                01532                  GOTO   CUI5            
Error[150]  : Labels must be defined in a code or data section when making an object file
000000                01533 CUI4            
Error[151]  : Operand contains unresolvable labels or is too complex
Error[152]  : Executable code and data must be defined in an appropriate section
Error[152]  : Executable code and data must be defined in an appropriate section
000000                01534                  CALL   Input 
                      01535                  ; If EXIT flag is exit, RETURN 
Error[113]  : Symbol not previously defined (EXIT)
Error[152]  : Executable code and data must be defined in an appropriate section
000000                01536                  MOVLB  HIGH EXIT
Error[113]  : Symbol not previously defined (EXIT)
Error[152]  : Executable code and data must be defined in an appropriate section
000000                01537                  BTFSC  EXIT,0
Error[151]  : Operand contains unresolvable labels or is too complex
Error[152]  : Executable code and data must be defined in an appropriate section
MPASM  5.37                            UI.ASM   8-24-2010  6:19:47         PAGE 79


LOC  OBJECT CODE     LINE SOURCE TEXT
  VALUE

Error[152]  : Executable code and data must be defined in an appropriate section
000000                01538                  GOTO   CUI2a 
Error[150]  : Labels must be defined in a code or data section when making an object file
000000                01539 CUI4a 
Warning[207]: Found label after column 1. (MOVE16)
Error[122]  : Illegal opcode (PostCallLevel2)
000000                01540                  MOVE16 PostCallLevel2,BXreg
Error[151]  : Operand contains unresolvable labels or is too complex
Error[152]  : Executable code and data must be defined in an appropriate section
Error[152]  : Executable code and data must be defined in an appropriate section
000000                01541                  CALL   CallBXreg 
                      01542                  ; Restore the top line of the display from TrackMenu
Warning[207]: Found label after column 1. (MOVE16)
Error[122]  : Illegal opcode (CalMenu)
                      01543                  MOVE16 CalMenu,AXreg 
Warning[207]: Found label after column 1. (CALLF)
Error[122]  : Illegal opcode (LCDsendAX)
                      01544                  CALLF  LCDsendAX   
Warning[207]: Found label after column 1. (MOVE16)
Error[122]  : Illegal opcode (CalMenu1)
                      01545                  MOVE16 CalMenu1,AXreg 
Error[151]  : Operand contains unresolvable labels or is too complex
Error[152]  : Executable code and data must be defined in an appropriate section
Error[152]  : Executable code and data must be defined in an appropriate section
000000                01546                  GOTO   CUI3
Error[150]  : Labels must be defined in a code or data section when making an object file
000000                01547 CUI2    
Error[151]  : Operand contains unresolvable labels or is too complex
Error[152]  : Executable code and data must be defined in an appropriate section
Error[152]  : Executable code and data must be defined in an appropriate section
000000                01548                 CALL    Input
                      01549                 ; If EXIT flag is exit, RETURN 
Error[113]  : Symbol not previously defined (EXIT)
Error[152]  : Executable code and data must be defined in an appropriate section
000000                01550                 MOVLB   HIGH EXIT
Error[113]  : Symbol not previously defined (EXIT)
Error[152]  : Executable code and data must be defined in an appropriate section
000000                01551                 BTFSC   EXIT,0
Error[152]  : Executable code and data must be defined in an appropriate section
000000                01552                 RETURN
Error[150]  : Labels must be defined in a code or data section when making an object file
000000                01553 CUI2a
Warning[207]: Found label after column 1. (MOVE16)
Error[122]  : Illegal opcode (PostCallLevel1)
000000                01554                 MOVE16  PostCallLevel1,BXreg
Error[151]  : Operand contains unresolvable labels or is too complex
Error[152]  : Executable code and data must be defined in an appropriate section
Error[152]  : Executable code and data must be defined in an appropriate section
000000                01555                 CALL    CallBXreg 
Error[151]  : Operand contains unresolvable labels or is too complex
Error[152]  : Executable code and data must be defined in an appropriate section
Error[152]  : Executable code and data must be defined in an appropriate section
000000                01556                 GOTO    CalUI       
MPASM  5.37                            UI.ASM   8-24-2010  6:19:47         PAGE 80


LOC  OBJECT CODE     LINE SOURCE TEXT
  VALUE

Error[152]  : Executable code and data must be defined in an appropriate section
000000                01557                 RETURN
                      01558 
                      01559 ; User interface include files....              
                      01560 
                      01561         Include <SelAft.asm>
                      00001 ;
                      00002 ; This function is called from the calibration mode after the user
                      00003 ; has selected the option to "Select Aircraft".
                      00004 ; The top line of the display will show the aircraft number and the
                      00005 ; second line will show the aircraft name.
                      00006 ; The elevator stick is used to scroll through all of the posible
                      00007 ; aircraft, when the option desired is displayed, press the option
                      00008 ; button to make your selection and exit this function.
                      00009 ;
Error[150]  : Labels must be defined in a code or data section when making an object file
000000                00010 SelectAircraft
                      00011         ; Move digital trims to the current aircraft and update
Warning[207]: Found label after column 1. (MOVE)
Error[122]  : Illegal opcode (DTail)
                      00012                 MOVE    DTail,DTailA
Warning[207]: Found label after column 1. (MOVE)
Error[122]  : Illegal opcode (DTele)
                      00013                 MOVE    DTele,DTeleA
Warning[207]: Found label after column 1. (MOVE)
Error[122]  : Illegal opcode (DTrud)
                      00014                 MOVE    DTrud,DTrudA
Warning[207]: Found label after column 1. (MOVE)
Error[122]  : Illegal opcode (DTtht)
                      00015                 MOVE    DTtht,DTthtA
Error[113]  : Symbol not previously defined (Aircraft)
Error[152]  : Executable code and data must be defined in an appropriate section
Error[113]  : Symbol not previously defined (WREG)
Error[152]  : Executable code and data must be defined in an appropriate section
000000                00016                 MOVFF   Aircraft,WREG
Error[113]  : Symbol not previously defined (SaveAircraft)
Error[152]  : Executable code and data must be defined in an appropriate section
Error[152]  : Executable code and data must be defined in an appropriate section
000000                00017                 CALL    SaveAircraft            
                      00018         ; Display the current aircraft number and name
Error[150]  : Labels must be defined in a code or data section when making an object file
000000                00019 SA4
Error[113]  : Symbol not previously defined (Aircraft)
Error[152]  : Executable code and data must be defined in an appropriate section
Error[113]  : Symbol not previously defined (WREG)
Error[152]  : Executable code and data must be defined in an appropriate section
000000                00020                 MOVFF   Aircraft,WREG
Error[113]  : Symbol not previously defined (LoadAircraftName)
Error[152]  : Executable code and data must be defined in an appropriate section
Error[152]  : Executable code and data must be defined in an appropriate section
000000                00021                 CALL    LoadAircraftName
Warning[207]: Found label after column 1. (CALLFL)
Error[122]  : Illegal opcode (LCDsendCMD)
MPASM  5.37                            UI.ASM   8-24-2010  6:19:47         PAGE 81


LOC  OBJECT CODE     LINE SOURCE TEXT
  VALUE

000000                00022                 CALLFL  LCDsendCMD,LINE1
Warning[207]: Found label after column 1. (PrintMess)
Error[122]  : Illegal opcode (MES4)
000000                00023                 PrintMess MES4
Warning[207]: Found label after column 1. (CALLFL)
Error[122]  : Illegal opcode (LCDsendCMD)
000000                00024                 CALLFL  LCDsendCMD,LINE1+ACFTPOS
Error[113]  : Symbol not previously defined (Aircraft)
Error[152]  : Executable code and data must be defined in an appropriate section
000000                00025                 MOVLB   HIGH Aircraft
Error[113]  : Symbol not previously defined (Aircraft)
Error[152]  : Executable code and data must be defined in an appropriate section
000000                00026                 MOVF    Aircraft,W
Error[113]  : Symbol not previously defined (CEXreg)
Error[152]  : Executable code and data must be defined in an appropriate section
000000                00027                 MOVLB   HIGH CEXreg
Error[113]  : Symbol not previously defined (CEXreg)
Error[152]  : Executable code and data must be defined in an appropriate section
000000                00028                 MOVWF   CEXreg
Error[113]  : Symbol not previously defined (CEXreg)
Error[152]  : Executable code and data must be defined in an appropriate section
000000                00029                 CLRF    CEXreg+1
Error[113]  : Symbol not previously defined (CEXreg)
Error[152]  : Executable code and data must be defined in an appropriate section
000000                00030                 CLRF    CEXreg+2
Error[113]  : Symbol not previously defined (CEXreg)
Error[152]  : Executable code and data must be defined in an appropriate section
000000                00031                 CLRF    CEXreg+3
Error[113]  : Symbol not previously defined (LCDint2)
Error[152]  : Executable code and data must be defined in an appropriate section
Error[152]  : Executable code and data must be defined in an appropriate section
000000                00032                 CALL    LCDint2
                      00033                 ; Now display the aircraft name on the second line
Error[113]  : Symbol not previously defined (DisplayAircraftName)
Error[152]  : Executable code and data must be defined in an appropriate section
Error[152]  : Executable code and data must be defined in an appropriate section
000000                00034                 CALL    DisplayAircraftName
Error[113]  : Symbol not previously defined (IncTime)
Error[152]  : Executable code and data must be defined in an appropriate section
Error[113]  : Symbol not previously defined (WREG)
Error[152]  : Executable code and data must be defined in an appropriate section
000000                00035                 MOVFF   IncTime,WREG
Error[152]  : Executable code and data must be defined in an appropriate section
000000                00036                 SUBLW   D'127'
Error[113]  : Symbol not previously defined (WREG)
Error[113]  : Symbol not previously defined (A)
Error[152]  : Executable code and data must be defined in an appropriate section
000000                00037                 BTFSC   WREG,7,A
Error[113]  : Symbol not previously defined (WREG)
Error[113]  : Symbol not previously defined (A)
Error[152]  : Executable code and data must be defined in an appropriate section
000000                00038                 CLRF    WREG,A
Error[113]  : Symbol not previously defined (WREG)
MPASM  5.37                            UI.ASM   8-24-2010  6:19:47         PAGE 82


LOC  OBJECT CODE     LINE SOURCE TEXT
  VALUE

Error[152]  : Executable code and data must be defined in an appropriate section
000000                00039                 RLNCF   WREG
Error[113]  : Symbol not previously defined (WREG)
Error[113]  : Symbol not previously defined (A)
Error[152]  : Executable code and data must be defined in an appropriate section
000000                00040                 TSTFSZ  WREG,A
Error[113]  : Symbol not previously defined (Delay1mS)
Error[152]  : Executable code and data must be defined in an appropriate section
Error[152]  : Executable code and data must be defined in an appropriate section
000000                00041                 CALL    Delay1mS
                      00042         ; Test elevator for a change request
Error[150]  : Labels must be defined in a code or data section when making an object file
000000                00043 SA3
Error[151]  : Operand contains unresolvable labels or is too complex
Error[152]  : Executable code and data must be defined in an appropriate section
Error[152]  : Executable code and data must be defined in an appropriate section
000000                00044                 CALL    Elevator
Error[113]  : Symbol not previously defined (Z)
Error[113]  : Symbol not previously defined (ALUSTA)
Error[113]  : Symbol not previously defined (A)
Error[152]  : Executable code and data must be defined in an appropriate section
000000                00045                 BTFSS   ALUSTA,Z,A
Error[151]  : Operand contains unresolvable labels or is too complex
Error[152]  : Executable code and data must be defined in an appropriate section
Error[152]  : Executable code and data must be defined in an appropriate section
000000                00046                 GOTO    SA1
                      00047                 ; Here to advance to next aircraft
Error[113]  : Symbol not previously defined (NumAircraft)
Error[152]  : Executable code and data must be defined in an appropriate section
000000                00048                 MOVLW   (NumAircraft+1)
Error[113]  : Symbol not previously defined (Aircraft)
Error[152]  : Executable code and data must be defined in an appropriate section
000000                00049                 MOVLB   HIGH Aircraft
Error[113]  : Symbol not previously defined (Aircraft)
Error[152]  : Executable code and data must be defined in an appropriate section
000000                00050                 INCF    Aircraft
Error[113]  : Symbol not previously defined (Aircraft)
Error[152]  : Executable code and data must be defined in an appropriate section
000000                00051                 CPFSEQ  Aircraft
Error[151]  : Operand contains unresolvable labels or is too complex
Error[152]  : Executable code and data must be defined in an appropriate section
Error[152]  : Executable code and data must be defined in an appropriate section
000000                00052                 GOTO    SA4
Error[152]  : Executable code and data must be defined in an appropriate section
000000                00053                 MOVLW   1
Error[113]  : Symbol not previously defined (Aircraft)
Error[152]  : Executable code and data must be defined in an appropriate section
000000                00054                 MOVWF   Aircraft
Error[151]  : Operand contains unresolvable labels or is too complex
Error[152]  : Executable code and data must be defined in an appropriate section
Error[152]  : Executable code and data must be defined in an appropriate section
000000                00055                 GOTO    SA4
Error[150]  : Labels must be defined in a code or data section when making an object file
MPASM  5.37                            UI.ASM   8-24-2010  6:19:47         PAGE 83


LOC  OBJECT CODE     LINE SOURCE TEXT
  VALUE

000000                00056 SA1
Error[113]  : Symbol not previously defined (C)
Error[113]  : Symbol not previously defined (ALUSTA)
Error[113]  : Symbol not previously defined (A)
Error[152]  : Executable code and data must be defined in an appropriate section
000000                00057                 BTFSS   ALUSTA,C,A
Error[151]  : Operand contains unresolvable labels or is too complex
Error[152]  : Executable code and data must be defined in an appropriate section
Error[152]  : Executable code and data must be defined in an appropriate section
000000                00058                 GOTO    SA2
                      00059                 ; Here to return to last aircraft
Warning[207]: Found label after column 1. (MOVLR)
Error[122]  : Illegal opcode (HIGH)
                      00060                 MOVLR   HIGH Aircraft
Error[113]  : Symbol not previously defined (Aircraft)
Error[152]  : Executable code and data must be defined in an appropriate section
000000                00061                 DECF    Aircraft
Error[152]  : Executable code and data must be defined in an appropriate section
000000                00062                 MOVLW   0
Error[113]  : Symbol not previously defined (Aircraft)
Error[152]  : Executable code and data must be defined in an appropriate section
000000                00063                 CPFSEQ  Aircraft
Error[151]  : Operand contains unresolvable labels or is too complex
Error[152]  : Executable code and data must be defined in an appropriate section
Error[152]  : Executable code and data must be defined in an appropriate section
000000                00064                 GOTO    SA4
Error[113]  : Symbol not previously defined (NumAircraft)
Error[152]  : Executable code and data must be defined in an appropriate section
000000                00065                 MOVLW   NumAircraft
Warning[207]: Found label after column 1. (MOVLR)
Error[122]  : Illegal opcode (HIGH)
000000                00066                 MOVLR   HIGH Aircraft
Error[113]  : Symbol not previously defined (Aircraft)
Error[152]  : Executable code and data must be defined in an appropriate section
000000                00067                 MOVWF   Aircraft
Error[151]  : Operand contains unresolvable labels or is too complex
Error[152]  : Executable code and data must be defined in an appropriate section
Error[152]  : Executable code and data must be defined in an appropriate section
000000                00068                 GOTO    SA4
                      00069         ; Test for option button
Error[150]  : Labels must be defined in a code or data section when making an object file
000000                00070 SA2
Error[113]  : Symbol not previously defined (Option)
Error[152]  : Executable code and data must be defined in an appropriate section
Error[152]  : Executable code and data must be defined in an appropriate section
000000                00071                 CALL    Option
Error[113]  : Symbol not previously defined (C)
Error[113]  : Symbol not previously defined (ALUSTA)
Error[113]  : Symbol not previously defined (A)
Error[152]  : Executable code and data must be defined in an appropriate section
000000                00072                 BTFSS   ALUSTA,C,A
Error[151]  : Operand contains unresolvable labels or is too complex
Error[152]  : Executable code and data must be defined in an appropriate section
MPASM  5.37                            UI.ASM   8-24-2010  6:19:47         PAGE 84


LOC  OBJECT CODE     LINE SOURCE TEXT
  VALUE

Error[152]  : Executable code and data must be defined in an appropriate section
000000                00073                 GOTO    SA3
                      00074         ; Now read the selected aircraft data and write the selection to Flash
Error[113]  : Symbol not previously defined (Aircraft)
Error[152]  : Executable code and data must be defined in an appropriate section
Error[113]  : Symbol not previously defined (WREG)
Error[152]  : Executable code and data must be defined in an appropriate section
000000                00075                 MOVFF   Aircraft,WREG
Error[113]  : Symbol not previously defined (LoadAircraft)
Error[152]  : Executable code and data must be defined in an appropriate section
Error[152]  : Executable code and data must be defined in an appropriate section
000000                00076                 CALL    LoadAircraft
                      00077                 ; Move digital trims to EEPROM and save
Warning[207]: Found label after column 1. (MOVE)
Error[122]  : Illegal opcode (DTailA)
                      00078                 MOVE    DTailA,DTail
Warning[207]: Found label after column 1. (MOVE)
Error[122]  : Illegal opcode (DTeleA)
                      00079                 MOVE    DTeleA,DTele
Warning[207]: Found label after column 1. (MOVE)
Error[122]  : Illegal opcode (DTrudA)
                      00080                 MOVE    DTrudA,DTrud
Warning[207]: Found label after column 1. (MOVE)
Error[122]  : Illegal opcode (DTthtA)
                      00081                 MOVE    DTthtA,DTtht
Warning[207]: Found label after column 1. (MOVEC)
Error[122]  : Illegal opcode (DTail)
                      00082                 MOVEC   DTail,AXreg
Error[152]  : Executable code and data must be defined in an appropriate section
000000                00083                 MOVLW   8
Error[113]  : Symbol not previously defined (WREG)
Error[152]  : Executable code and data must be defined in an appropriate section
Error[113]  : Symbol not previously defined (Areg)
Error[152]  : Executable code and data must be defined in an appropriate section
000000                00084                 MOVFF   WREG,Areg
Warning[207]: Found label after column 1. (MOVEC)
Error[122]  : Illegal opcode (DTail)
000000                00085                 MOVEC   DTail,AXreg
Error[113]  : Symbol not previously defined (EEPROMwriteBlock)
Error[152]  : Executable code and data must be defined in an appropriate section
Error[152]  : Executable code and data must be defined in an appropriate section
000000                00086                 CALL    EEPROMwriteBlock
                      00087                 ; Save the aircraft number...
Error[113]  : Symbol not previously defined (Aircraft)
Error[152]  : Executable code and data must be defined in an appropriate section
Error[113]  : Symbol not previously defined (WREG)
Error[152]  : Executable code and data must be defined in an appropriate section
000000                00088                 MOVFF   Aircraft,WREG
Error[113]  : Symbol not previously defined (WREG)
Error[152]  : Executable code and data must be defined in an appropriate section
Error[113]  : Symbol not previously defined (DefaultAircraft)
Error[152]  : Executable code and data must be defined in an appropriate section
000000                00089                 MOVFF   WREG,DefaultAircraft
MPASM  5.37                            UI.ASM   8-24-2010  6:19:47         PAGE 85


LOC  OBJECT CODE     LINE SOURCE TEXT
  VALUE

Error[113]  : Symbol not previously defined (SaveGeneral)
Error[152]  : Executable code and data must be defined in an appropriate section
Error[152]  : Executable code and data must be defined in an appropriate section
000000                00090                 CALL    SaveGeneral
Error[152]  : Executable code and data must be defined in an appropriate section
000000                00091                 RETURN
                      01562         Include <AftName.asm>
                      00001 ;
                      00002 ; This function is called from the calibration mode when the user 
                      00003 ; selects the edit aircraft name option.
                      00004 ; This function allows the pilot to change the Aircraft name using
                      00005 ; the Aielron stick to select the letter and the elevator stick to
                      00006 ; change the letter. The option key is pressed when the changes are
                      00007 ; complete.
                      00008 ;
Error[150]  : Labels must be defined in a code or data section when making an object file
000000                00009 AircraftName
                      00010         ; Display the Name
Warning[207]: Found label after column 1. (CALLFL)
Error[122]  : Illegal opcode (LCDsendCMD)
                      00011                 CALLFL  LCDsendCMD,LINE2
Error[113]  : Symbol not previously defined (DisplayAircraftName)
Error[152]  : Executable code and data must be defined in an appropriate section
Error[152]  : Executable code and data must be defined in an appropriate section
000000                00012                 CALL    DisplayAircraftName
                      00013         ; Init indirect register
Error[113]  : Symbol not previously defined (Name)
Error[152]  : Executable code and data must be defined in an appropriate section
000000                00014                 MOVLW   LOW Name
Error[113]  : Symbol not previously defined (FSR1L)
Error[113]  : Symbol not previously defined (A)
Error[152]  : Executable code and data must be defined in an appropriate section
000000                00015                 MOVWF   FSR1L,A
Error[113]  : Symbol not previously defined (Name)
Error[152]  : Executable code and data must be defined in an appropriate section
000000                00016                 MOVLW   HIGH Name
Error[113]  : Symbol not previously defined (FSR1H)
Error[113]  : Symbol not previously defined (A)
Error[152]  : Executable code and data must be defined in an appropriate section
000000                00017                 MOVWF   FSR1H,A
                      00018         ; Position the cursor and display the cursor char
Error[150]  : Labels must be defined in a code or data section when making an object file
000000                00019 CAN0
Warning[207]: Found label after column 1. (CALLFL)
Error[122]  : Illegal opcode (Delay1mS)
000000                00020                 CALLFL  Delay1mS,D'150'
Error[113]  : Symbol not previously defined (Name)
Error[152]  : Executable code and data must be defined in an appropriate section
000000                00021                 MOVLW   LOW Name
Error[113]  : Symbol not previously defined (LINE2)
Error[152]  : Executable code and data must be defined in an appropriate section
000000                00022                 SUBLW   LINE2
Error[113]  : Symbol not previously defined (FSR1L)
MPASM  5.37                            UI.ASM   8-24-2010  6:19:47         PAGE 86


LOC  OBJECT CODE     LINE SOURCE TEXT
  VALUE

Error[113]  : Symbol not previously defined (A)
Error[152]  : Executable code and data must be defined in an appropriate section
000000                00023                 ADDWF   FSR1L,W,A
Error[113]  : Symbol not previously defined (WREG)
Error[152]  : Executable code and data must be defined in an appropriate section
Error[113]  : Symbol not previously defined (Areg)
Error[152]  : Executable code and data must be defined in an appropriate section
000000                00024                 MOVFF   WREG,Areg
Warning[205]: Found directive in column 1. (ifdef)
                      00025 ifdef           MicroProStar
                      00026         ; If the position is to the right of center then adjust the pointer
                      00027                 MOVLW   LINE2+7
                      00028                 CPFSGT  Areg,A
                      00029                 GOTO    ANok
                      00030                 ; Here is adjust address, add 38 hex to correct
                      00031                 MOVLW   38
                      00032                 ADDWF   Areg,W,A
                      00033                 MOVFF   WREG,Areg
                      00034 ANok
                      00035 endif
Error[113]  : Symbol not previously defined (Areg)
Error[152]  : Executable code and data must be defined in an appropriate section
Error[113]  : Symbol not previously defined (WREG)
Error[152]  : Executable code and data must be defined in an appropriate section
000000                00036                 MOVFF   Areg,WREG
Error[113]  : Symbol not previously defined (LCDsendCMD)
Error[152]  : Executable code and data must be defined in an appropriate section
Error[152]  : Executable code and data must be defined in an appropriate section
000000                00037                 CALL    LCDsendCMD                              ; Set the cursor position
Error[113]  : Symbol not previously defined (INDF1)
Error[113]  : Symbol not previously defined (A)
Error[152]  : Executable code and data must be defined in an appropriate section
000000                00038                 MOVF    INDF1,W,A                               
Error[113]  : Symbol not previously defined (LCDsendData)
Error[152]  : Executable code and data must be defined in an appropriate section
Error[152]  : Executable code and data must be defined in an appropriate section
000000                00039                 CALL    LCDsendData                             ; Write the char to the display
Error[113]  : Symbol not previously defined (Areg)
Error[152]  : Executable code and data must be defined in an appropriate section
Error[113]  : Symbol not previously defined (WREG)
Error[152]  : Executable code and data must be defined in an appropriate section
000000                00040                 MOVFF   Areg,WREG                               ; Reposition the cursor
Error[113]  : Symbol not previously defined (LCDsendCMD)
Error[152]  : Executable code and data must be defined in an appropriate section
Error[152]  : Executable code and data must be defined in an appropriate section
000000                00041                 CALL    LCDsendCMD
Warning[207]: Found label after column 1. (CALLFL)
Error[122]  : Illegal opcode (LCDsendCMD)
000000                00042                 CALLFL  LCDsendCMD,CURSORON
                      00043         ; Let the user make a selection
                      00044                 ; Aileron stick selects the character to edit
Error[150]  : Labels must be defined in a code or data section when making an object file
000000                00045 CANa
MPASM  5.37                            UI.ASM   8-24-2010  6:19:47         PAGE 87


LOC  OBJECT CODE     LINE SOURCE TEXT
  VALUE

Error[151]  : Operand contains unresolvable labels or is too complex
Error[152]  : Executable code and data must be defined in an appropriate section
Error[152]  : Executable code and data must be defined in an appropriate section
000000                00046                 CALL    Aileron
Error[113]  : Symbol not previously defined (Z)
Error[113]  : Symbol not previously defined (ALUSTA)
Error[113]  : Symbol not previously defined (A)
Error[152]  : Executable code and data must be defined in an appropriate section
000000                00047                 BTFSS   ALUSTA,Z,A
Error[151]  : Operand contains unresolvable labels or is too complex
Error[152]  : Executable code and data must be defined in an appropriate section
Error[152]  : Executable code and data must be defined in an appropriate section
000000                00048                 GOTO    CAN1
Error[113]  : Symbol not previously defined (FSR1L)
Error[113]  : Symbol not previously defined (A)
Error[152]  : Executable code and data must be defined in an appropriate section
000000                00049                 INCF    FSR1L,F,A
Error[113]  : Symbol not previously defined (Name)
Error[152]  : Executable code and data must be defined in an appropriate section
000000                00050                 MOVLW   LOW (Name + D'15')
Warning[205]: Found directive in column 1. (ifdef)
                      00051 ifdef ECMA1010display
                      00052                 MOVLW   LOW (Name + D'11')
                      00053 Endif
Error[113]  : Symbol not previously defined (FSR1L)
Error[113]  : Symbol not previously defined (A)
Error[152]  : Executable code and data must be defined in an appropriate section
000000                00054                 CPFSGT  FSR1L,A
Error[151]  : Operand contains unresolvable labels or is too complex
Error[152]  : Executable code and data must be defined in an appropriate section
Error[152]  : Executable code and data must be defined in an appropriate section
000000                00055                 GOTO    CAN0
Error[113]  : Symbol not previously defined (Name)
Error[152]  : Executable code and data must be defined in an appropriate section
000000                00056                 MOVLW   LOW Name                                ; Reset to start of line
Error[113]  : Symbol not previously defined (FSR1L)
Error[113]  : Symbol not previously defined (A)
Error[152]  : Executable code and data must be defined in an appropriate section
000000                00057                 MOVWF   FSR1L,A
Error[151]  : Operand contains unresolvable labels or is too complex
Error[152]  : Executable code and data must be defined in an appropriate section
Error[152]  : Executable code and data must be defined in an appropriate section
000000                00058                 GOTO    CAN0
Error[150]  : Labels must be defined in a code or data section when making an object file
000000                00059 CAN1
Error[113]  : Symbol not previously defined (C)
Error[113]  : Symbol not previously defined (ALUSTA)
Error[113]  : Symbol not previously defined (A)
Error[152]  : Executable code and data must be defined in an appropriate section
000000                00060                 BTFSS   ALUSTA,C,A
Error[151]  : Operand contains unresolvable labels or is too complex
Error[152]  : Executable code and data must be defined in an appropriate section
Error[152]  : Executable code and data must be defined in an appropriate section
MPASM  5.37                            UI.ASM   8-24-2010  6:19:47         PAGE 88


LOC  OBJECT CODE     LINE SOURCE TEXT
  VALUE

000000                00061                 GOTO    CAN2
Error[113]  : Symbol not previously defined (FSR1L)
Error[113]  : Symbol not previously defined (A)
Error[152]  : Executable code and data must be defined in an appropriate section
000000                00062                 DECF    FSR1L,F,A
Error[113]  : Symbol not previously defined (Name)
Error[152]  : Executable code and data must be defined in an appropriate section
000000                00063                 MOVLW   LOW (Name - 1)
Error[113]  : Symbol not previously defined (FSR1L)
Error[113]  : Symbol not previously defined (A)
Error[152]  : Executable code and data must be defined in an appropriate section
000000                00064                 CPFSEQ  FSR1L,A
Error[151]  : Operand contains unresolvable labels or is too complex
Error[152]  : Executable code and data must be defined in an appropriate section
Error[152]  : Executable code and data must be defined in an appropriate section
000000                00065                 GOTO    CAN0
Error[113]  : Symbol not previously defined (Name)
Error[152]  : Executable code and data must be defined in an appropriate section
000000                00066                 MOVLW   LOW (Name + D'15')
Warning[205]: Found directive in column 1. (ifdef)
                      00067 ifdef ECMA1010display
                      00068                 MOVLW   LOW (Name + D'11')
                      00069 Endif
Error[113]  : Symbol not previously defined (FSR1L)
Error[113]  : Symbol not previously defined (A)
Error[152]  : Executable code and data must be defined in an appropriate section
000000                00070                 MOVWF   FSR1L,A
Error[151]  : Operand contains unresolvable labels or is too complex
Error[152]  : Executable code and data must be defined in an appropriate section
Error[152]  : Executable code and data must be defined in an appropriate section
000000                00071                 GOTO    CAN0
                      00072 
Error[150]  : Labels must be defined in a code or data section when making an object file
000000                00073 CAN2
                      00074                 ; Elevator stick changes the character value
Error[151]  : Operand contains unresolvable labels or is too complex
Error[152]  : Executable code and data must be defined in an appropriate section
Error[152]  : Executable code and data must be defined in an appropriate section
000000                00075                 CALL    Elevator
Error[113]  : Symbol not previously defined (Z)
Error[113]  : Symbol not previously defined (ALUSTA)
Error[113]  : Symbol not previously defined (A)
Error[152]  : Executable code and data must be defined in an appropriate section
000000                00076                 BTFSS   ALUSTA,Z,A
Error[151]  : Operand contains unresolvable labels or is too complex
Error[152]  : Executable code and data must be defined in an appropriate section
Error[152]  : Executable code and data must be defined in an appropriate section
000000                00077                 GOTO    CAN3
Error[113]  : Symbol not previously defined (INDF1)
Error[113]  : Symbol not previously defined (A)
Error[152]  : Executable code and data must be defined in an appropriate section
000000                00078                 INCF    INDF1,F,A
Error[152]  : Executable code and data must be defined in an appropriate section
MPASM  5.37                            UI.ASM   8-24-2010  6:19:47         PAGE 89


LOC  OBJECT CODE     LINE SOURCE TEXT
  VALUE

000000                00079                 MOVLW   'z'
Error[113]  : Symbol not previously defined (INDF1)
Error[113]  : Symbol not previously defined (A)
Error[152]  : Executable code and data must be defined in an appropriate section
000000                00080                 CPFSLT  INDF1,A
Error[113]  : Symbol not previously defined (INDF1)
Error[113]  : Symbol not previously defined (A)
Error[152]  : Executable code and data must be defined in an appropriate section
000000                00081                 MOVWF   INDF1,A
Error[151]  : Operand contains unresolvable labels or is too complex
Error[152]  : Executable code and data must be defined in an appropriate section
Error[152]  : Executable code and data must be defined in an appropriate section
000000                00082                 GOTO    CAN0
Error[150]  : Labels must be defined in a code or data section when making an object file
000000                00083 CAN3
Error[113]  : Symbol not previously defined (C)
Error[113]  : Symbol not previously defined (ALUSTA)
Error[113]  : Symbol not previously defined (A)
Error[152]  : Executable code and data must be defined in an appropriate section
000000                00084                 BTFSS   ALUSTA,C,A
Error[151]  : Operand contains unresolvable labels or is too complex
Error[152]  : Executable code and data must be defined in an appropriate section
Error[152]  : Executable code and data must be defined in an appropriate section
000000                00085                 GOTO    CAN4
Error[113]  : Symbol not previously defined (INDF1)
Error[113]  : Symbol not previously defined (A)
Error[152]  : Executable code and data must be defined in an appropriate section
000000                00086                 DECF    INDF1,F,A
Error[152]  : Executable code and data must be defined in an appropriate section
000000                00087                 MOVLW   ' '
Error[113]  : Symbol not previously defined (INDF1)
Error[113]  : Symbol not previously defined (A)
Error[152]  : Executable code and data must be defined in an appropriate section
000000                00088                 CPFSGT  INDF1,A
Error[113]  : Symbol not previously defined (INDF1)
Error[113]  : Symbol not previously defined (A)
Error[152]  : Executable code and data must be defined in an appropriate section
000000                00089                 MOVWF   INDF1,A
Error[151]  : Operand contains unresolvable labels or is too complex
Error[152]  : Executable code and data must be defined in an appropriate section
Error[152]  : Executable code and data must be defined in an appropriate section
000000                00090                 GOTO    CAN0
                      00091 
Error[150]  : Labels must be defined in a code or data section when making an object file
000000                00092 CAN4
                      00093         ; Test for the option button
Error[113]  : Symbol not previously defined (Option)
Error[152]  : Executable code and data must be defined in an appropriate section
Error[152]  : Executable code and data must be defined in an appropriate section
000000                00094                 CALL    Option
Error[113]  : Symbol not previously defined (C)
Error[113]  : Symbol not previously defined (ALUSTA)
Error[152]  : Executable code and data must be defined in an appropriate section
MPASM  5.37                            UI.ASM   8-24-2010  6:19:47         PAGE 90


LOC  OBJECT CODE     LINE SOURCE TEXT
  VALUE

000000                00095                 BTFSS   ALUSTA,C
Error[151]  : Operand contains unresolvable labels or is too complex
Error[152]  : Executable code and data must be defined in an appropriate section
Error[152]  : Executable code and data must be defined in an appropriate section
000000                00096                 GOTO    CANa
                      00097         ; Save the name
Warning[207]: Found label after column 1. (CALLFL)
Error[122]  : Illegal opcode (LCDsendCMD)
                      00098                 CALLFL  LCDsendCMD,CURSOROFF
Error[113]  : Symbol not previously defined (Aircraft)
Error[152]  : Executable code and data must be defined in an appropriate section
Error[113]  : Symbol not previously defined (WREG)
Error[152]  : Executable code and data must be defined in an appropriate section
000000                00099                 MOVFF   Aircraft,WREG
Error[113]  : Symbol not previously defined (SaveAircraft)
Error[152]  : Executable code and data must be defined in an appropriate section
Error[152]  : Executable code and data must be defined in an appropriate section
000000                00100                 CALL    SaveAircraft
Error[152]  : Executable code and data must be defined in an appropriate section
000000                00101                 RETURN
                      01563         Include <Servo.asm>
                      00001 ; The following two functions are rounding functions used by the servo UI
                      00002 ; calibration routines. These routiens are called before the divide calls 
                      00003 ; in the Convert2Times and Convert2Gains functions. These routines add 1/2
                      00004 ; the divisor to the dividend that is located in the CEXreg.
                      00005 ;
                      00006 ; Added Nov 29, 2009
Error[150]  : Labels must be defined in a code or data section when making an object file
000000                00007 Round256
                      00008         ; Test the sign of CEXreg
Error[113]  : Symbol not previously defined (CEXreg)
Error[152]  : Executable code and data must be defined in an appropriate section
000000                00009                 MOVLB   HIGH CEXreg
Error[113]  : Symbol not previously defined (CEXreg)
Error[152]  : Executable code and data must be defined in an appropriate section
000000                00010                 BTFSC   CEXreg+3,7
Error[151]  : Operand contains unresolvable labels or is too complex
Error[152]  : Executable code and data must be defined in an appropriate section
Error[152]  : Executable code and data must be defined in an appropriate section
000000                00011                 GOTO    R256_1
                      00012         ; Here is CEX is positive
Error[152]  : Executable code and data must be defined in an appropriate section
000000                00013                 MOVLW   LOW (D'128')
Error[113]  : Symbol not previously defined (CEXreg)
Error[152]  : Executable code and data must be defined in an appropriate section
000000                00014                 ADDWF   CEXreg,F
Error[152]  : Executable code and data must be defined in an appropriate section
000000                00015                 MOVLW   0
Error[113]  : Symbol not previously defined (CEXreg)
Error[152]  : Executable code and data must be defined in an appropriate section
000000                00016                 ADDWFC  CEXreg+1,F
Error[113]  : Symbol not previously defined (CEXreg)
Error[152]  : Executable code and data must be defined in an appropriate section
MPASM  5.37                            UI.ASM   8-24-2010  6:19:47         PAGE 91


LOC  OBJECT CODE     LINE SOURCE TEXT
  VALUE

000000                00017                 ADDWFC  CEXreg+2,F
Error[113]  : Symbol not previously defined (CEXreg)
Error[152]  : Executable code and data must be defined in an appropriate section
000000                00018                 ADDWFC  CEXreg+3,F
Error[152]  : Executable code and data must be defined in an appropriate section
000000                00019                 RETURN
Error[150]  : Labels must be defined in a code or data section when making an object file
000000                00020 R256_1
                      00021         ; Here is CEX is negative                       
Error[152]  : Executable code and data must be defined in an appropriate section
000000                00022                 MOVLW   LOW (D'128')
Error[113]  : Symbol not previously defined (CEXreg)
Error[152]  : Executable code and data must be defined in an appropriate section
000000                00023                 SUBWF   CEXreg,F
Error[152]  : Executable code and data must be defined in an appropriate section
000000                00024                 MOVLW   0
Error[113]  : Symbol not previously defined (CEXreg)
Error[152]  : Executable code and data must be defined in an appropriate section
000000                00025                 SUBWFB  CEXreg+1,F
Error[113]  : Symbol not previously defined (CEXreg)
Error[152]  : Executable code and data must be defined in an appropriate section
000000                00026                 SUBWFB  CEXreg+2,F
Error[113]  : Symbol not previously defined (CEXreg)
Error[152]  : Executable code and data must be defined in an appropriate section
000000                00027                 SUBWFB  CEXreg+3,F
                      00028         ; Exit
Error[152]  : Executable code and data must be defined in an appropriate section
000000                00029                 RETURN
                      00030 
Error[150]  : Labels must be defined in a code or data section when making an object file
000000                00031 Round1000
                      00032         ; Test the sign of CEXreg
Error[113]  : Symbol not previously defined (CEXreg)
Error[152]  : Executable code and data must be defined in an appropriate section
000000                00033                 MOVLB   HIGH CEXreg
Error[113]  : Symbol not previously defined (CEXreg)
Error[152]  : Executable code and data must be defined in an appropriate section
000000                00034                 BTFSC   CEXreg+3,7
Error[151]  : Operand contains unresolvable labels or is too complex
Error[152]  : Executable code and data must be defined in an appropriate section
Error[152]  : Executable code and data must be defined in an appropriate section
000000                00035                 GOTO    R1000_1
                      00036         ; Here is CEX is positive
Error[152]  : Executable code and data must be defined in an appropriate section
000000                00037                 MOVLW   LOW (D'500')
Error[113]  : Symbol not previously defined (CEXreg)
Error[152]  : Executable code and data must be defined in an appropriate section
000000                00038                 ADDWF   CEXreg,F
Error[152]  : Executable code and data must be defined in an appropriate section
000000                00039                 MOVLW   HIGH (D'500')
Error[113]  : Symbol not previously defined (CEXreg)
Error[152]  : Executable code and data must be defined in an appropriate section
000000                00040                 ADDWFC  CEXreg+1,F
MPASM  5.37                            UI.ASM   8-24-2010  6:19:47         PAGE 92


LOC  OBJECT CODE     LINE SOURCE TEXT
  VALUE

Error[152]  : Executable code and data must be defined in an appropriate section
000000                00041                 MOVLW   0
Error[113]  : Symbol not previously defined (CEXreg)
Error[152]  : Executable code and data must be defined in an appropriate section
000000                00042                 ADDWFC  CEXreg+2,F
Error[113]  : Symbol not previously defined (CEXreg)
Error[152]  : Executable code and data must be defined in an appropriate section
000000                00043                 ADDWFC  CEXreg+3,F
Error[152]  : Executable code and data must be defined in an appropriate section
000000                00044                 RETURN
Error[150]  : Labels must be defined in a code or data section when making an object file
000000                00045 R1000_1
                      00046         ; Here is CEX is negative                       
Error[152]  : Executable code and data must be defined in an appropriate section
000000                00047                 MOVLW   LOW (D'128')
Error[113]  : Symbol not previously defined (CEXreg)
Error[152]  : Executable code and data must be defined in an appropriate section
000000                00048                 SUBWF   CEXreg,F
Error[152]  : Executable code and data must be defined in an appropriate section
000000                00049                 MOVLW   0
Error[113]  : Symbol not previously defined (CEXreg)
Error[152]  : Executable code and data must be defined in an appropriate section
000000                00050                 SUBWFB  CEXreg+1,F
Error[113]  : Symbol not previously defined (CEXreg)
Error[152]  : Executable code and data must be defined in an appropriate section
000000                00051                 SUBWFB  CEXreg+2,F
Error[113]  : Symbol not previously defined (CEXreg)
Error[152]  : Executable code and data must be defined in an appropriate section
000000                00052                 SUBWFB  CEXreg+3,F
                      00053         ; Exit
Error[152]  : Executable code and data must be defined in an appropriate section
000000                00054                 RETURN
                      00055 ; 
                      00056 ; This file contains the Servo User Interface Pre and Post functions. The 
                      00057 ; Pre function is called before the selected user interface option is processed
                      00058 ; by the user interface routines and the Post function is called after the
                      00059 ; user interface routine returns. These funtions move the servo data into
                      00060 ; a generic area before the user adjust parameters and returns the data to
                      00061 ; the correct specific place when finished.
                      00062 ;
                      00063 ; This function is used to convert the normalized position data into time
                      00064 ; in units of .5 uSec. This is done using generic parameters. The caller
                      00065 ; fills the generic parameters with the channel specfic data.
                      00066 ;
                      00067 ; The following calculations are performed:
                      00068 ; CENTER = CENTER
                      00069 ; RTDWN = (1000 * G)/256 + CENTER
                      00070 ; LTUP = (-1000 * G)/256 + CENTER
                      00071 ;
Error[150]  : Labels must be defined in a code or data section when making an object file
000000                00072 Convert2Times
Warning[207]: Found label after column 1. (MOVE16)
Error[122]  : Illegal opcode (AXreg)
MPASM  5.37                            UI.ASM   8-24-2010  6:19:47         PAGE 93


LOC  OBJECT CODE     LINE SOURCE TEXT
  VALUE

000000                00073                 MOVE16  AXreg,AXregS
Warning[207]: Found label after column 1. (MOVE16)
Error[122]  : Illegal opcode (BXreg)
000000                00074                 MOVE16  BXreg,BXregS
                      00075                 ; RT/DWN
Warning[207]: Found label after column 1. (MOVE16)
Error[122]  : Illegal opcode (RTDWN)
                      00076                 MOVE16  RTDWN,AXreg
Warning[207]: Found label after column 1. (MOVEC)
Error[122]  : Illegal opcode (D)
                      00077                 MOVEC   D'1000',BXreg
                      00078                 ; If the gain is negative, set the reverse servo flag
Error[113]  : Symbol not previously defined (WREG)
Error[152]  : Executable code and data must be defined in an appropriate section
000000                00079                 CLRF    WREG
Error[113]  : Symbol not previously defined (AXreg)
Error[152]  : Executable code and data must be defined in an appropriate section
000000                00080                 BTFSC   AXreg+1,7
Error[113]  : Symbol not previously defined (WREG)
Error[152]  : Executable code and data must be defined in an appropriate section
000000                00081                 SETF    WREG
Error[113]  : Symbol not previously defined (WREG)
Error[152]  : Executable code and data must be defined in an appropriate section
Error[113]  : Symbol not previously defined (ServoREV)
Error[152]  : Executable code and data must be defined in an appropriate section
000000                00082                 MOVFF   WREG,ServoREV
Error[113]  : Symbol not previously defined (WREG)
Error[152]  : Executable code and data must be defined in an appropriate section
Error[113]  : Symbol not previously defined (ServoREV)
Error[152]  : Executable code and data must be defined in an appropriate section
000000                00083                 MOVFF   WREG,ServoREV+1         ; Need two copies to see if user makes a change
                      00084                 ; End of reverse flag code
Error[113]  : Symbol not previously defined (Mult1616)
Error[152]  : Executable code and data must be defined in an appropriate section
Error[152]  : Executable code and data must be defined in an appropriate section
000000                00085                 CALL    Mult1616
Error[151]  : Operand contains unresolvable labels or is too complex
Error[152]  : Executable code and data must be defined in an appropriate section
Error[152]  : Executable code and data must be defined in an appropriate section
000000                00086                 CALL    Round256
Warning[207]: Found label after column 1. (MOVEC)
Error[122]  : Illegal opcode (D)
000000                00087                 MOVEC   D'256',DEXreg
Error[113]  : Symbol not previously defined (Divide2416)
Error[152]  : Executable code and data must be defined in an appropriate section
Error[152]  : Executable code and data must be defined in an appropriate section
000000                00088                 CALL    Divide2416
Warning[207]: Found label after column 1. (MOVE16)
Error[122]  : Illegal opcode (CEXreg)
000000                00089                 MOVE16  CEXreg,RTDWN
Error[113]  : Symbol not previously defined (RTDWN)
Error[152]  : Executable code and data must be defined in an appropriate section
000000                00090                 MOVLB   HIGH RTDWN
MPASM  5.37                            UI.ASM   8-24-2010  6:19:47         PAGE 94


LOC  OBJECT CODE     LINE SOURCE TEXT
  VALUE

Error[113]  : Symbol not previously defined (CENTER)
Error[152]  : Executable code and data must be defined in an appropriate section
000000                00091                 MOVF    CENTER,W
Error[113]  : Symbol not previously defined (RTDWN)
Error[152]  : Executable code and data must be defined in an appropriate section
000000                00092                 ADDWF   RTDWN,F
Error[113]  : Symbol not previously defined (CENTER)
Error[152]  : Executable code and data must be defined in an appropriate section
000000                00093                 MOVF    CENTER+1,W
Error[113]  : Symbol not previously defined (RTDWN)
Error[152]  : Executable code and data must be defined in an appropriate section
000000                00094                 ADDWFC  RTDWN+1,F
                      00095                 ; LF/UP
Warning[207]: Found label after column 1. (MOVE16)
Error[122]  : Illegal opcode (LTUP)
                      00096                 MOVE16  LTUP,AXreg
Warning[207]: Found label after column 1. (MOVEC)
Error[122]  : Illegal opcode (D)
                      00097                 MOVEC   D'1000',BXreg
Error[113]  : Symbol not previously defined (Mult1616)
Error[152]  : Executable code and data must be defined in an appropriate section
Error[152]  : Executable code and data must be defined in an appropriate section
000000                00098                 CALL    Mult1616
Error[151]  : Operand contains unresolvable labels or is too complex
Error[152]  : Executable code and data must be defined in an appropriate section
Error[152]  : Executable code and data must be defined in an appropriate section
000000                00099                 CALL    Round256
Warning[207]: Found label after column 1. (MOVEC)
Error[122]  : Illegal opcode (D)
000000                00100                 MOVEC   D'256',DEXreg
Error[113]  : Symbol not previously defined (Divide2416)
Error[152]  : Executable code and data must be defined in an appropriate section
Error[152]  : Executable code and data must be defined in an appropriate section
000000                00101                 CALL    Divide2416
Warning[207]: Found label after column 1. (MOVE16)
Error[122]  : Illegal opcode (CENTER)
000000                00102                 MOVE16  CENTER,LTUP
Error[113]  : Symbol not previously defined (CEXreg)
Error[152]  : Executable code and data must be defined in an appropriate section
000000                00103                 MOVF    CEXreg,W
Error[113]  : Symbol not previously defined (LTUP)
Error[152]  : Executable code and data must be defined in an appropriate section
000000                00104                 SUBWF   LTUP,F
Error[113]  : Symbol not previously defined (CEXreg)
Error[152]  : Executable code and data must be defined in an appropriate section
000000                00105                 MOVF    CEXreg+1,W
Error[113]  : Symbol not previously defined (LTUP)
Error[152]  : Executable code and data must be defined in an appropriate section
000000                00106                 SUBWFB  LTUP+1,F
                      00107                 ; Limit test
Warning[207]: Found label after column 1. (MOVE16)
Error[122]  : Illegal opcode (RTDWN)
                      00108                 MOVE16  RTDWN,AXreg
MPASM  5.37                            UI.ASM   8-24-2010  6:19:47         PAGE 95


LOC  OBJECT CODE     LINE SOURCE TEXT
  VALUE

Error[113]  : Symbol not previously defined (ApplyLimit)
Error[152]  : Executable code and data must be defined in an appropriate section
Error[152]  : Executable code and data must be defined in an appropriate section
000000                00109                 CALL    ApplyLimit
Warning[207]: Found label after column 1. (MOVE16)
Error[122]  : Illegal opcode (AXreg)
000000                00110                 MOVE16  AXreg,RTDWN
Warning[207]: Found label after column 1. (MOVE16)
Error[122]  : Illegal opcode (CENTER)
000000                00111                 MOVE16  CENTER,AXreg
Error[113]  : Symbol not previously defined (ApplyLimit)
Error[152]  : Executable code and data must be defined in an appropriate section
Error[152]  : Executable code and data must be defined in an appropriate section
000000                00112                 CALL    ApplyLimit
Warning[207]: Found label after column 1. (MOVE16)
Error[122]  : Illegal opcode (AXreg)
000000                00113                 MOVE16  AXreg,CENTER
Warning[207]: Found label after column 1. (MOVE16)
Error[122]  : Illegal opcode (LTUP)
000000                00114                 MOVE16  LTUP,AXreg
Error[113]  : Symbol not previously defined (ApplyLimit)
Error[152]  : Executable code and data must be defined in an appropriate section
Error[152]  : Executable code and data must be defined in an appropriate section
000000                00115                 CALL    ApplyLimit
Warning[207]: Found label after column 1. (MOVE16)
Error[122]  : Illegal opcode (AXreg)
000000                00116                 MOVE16  AXreg,LTUP
                      00117                 ;
Warning[207]: Found label after column 1. (MOVE16)
Error[122]  : Illegal opcode (AXregS)
                      00118                 MOVE16  AXregS,AXreg
Warning[207]: Found label after column 1. (MOVE16)
Error[122]  : Illegal opcode (BXregS)
                      00119                 MOVE16  BXregS,BXreg
Error[152]  : Executable code and data must be defined in an appropriate section
000000                00120                 RETURN
                      00121 ; The following calculations are performed:
                      00122 ; RTDWN  = (1000 * RTDWN)/256 + CENTER
                      00123 ; CENTER = (-1000 * RTDWN)/256 + CENTER
Error[150]  : Labels must be defined in a code or data section when making an object file
000000                00124 Convert2TimesNC
Warning[207]: Found label after column 1. (MOVE16)
Error[122]  : Illegal opcode (AXreg)
000000                00125                 MOVE16  AXreg,AXregS
Warning[207]: Found label after column 1. (MOVE16)
Error[122]  : Illegal opcode (BXreg)
000000                00126                 MOVE16  BXreg,BXregS
                      00127                 ; 
Warning[207]: Found label after column 1. (MOVE16)
Error[122]  : Illegal opcode (RTDWN)
                      00128                 MOVE16  RTDWN,AXreg
Warning[207]: Found label after column 1. (MOVEC)
Error[122]  : Illegal opcode (D)
MPASM  5.37                            UI.ASM   8-24-2010  6:19:47         PAGE 96


LOC  OBJECT CODE     LINE SOURCE TEXT
  VALUE

                      00129                 MOVEC   D'1000',BXreg
                      00130                 ; If the gain is negative, set the reverse servo flag
Error[113]  : Symbol not previously defined (WREG)
Error[152]  : Executable code and data must be defined in an appropriate section
000000                00131                 CLRF    WREG
Error[113]  : Symbol not previously defined (AXreg)
Error[152]  : Executable code and data must be defined in an appropriate section
000000                00132                 BTFSC   AXreg+1,7
Error[113]  : Symbol not previously defined (WREG)
Error[152]  : Executable code and data must be defined in an appropriate section
000000                00133                 SETF    WREG
Error[113]  : Symbol not previously defined (WREG)
Error[152]  : Executable code and data must be defined in an appropriate section
Error[113]  : Symbol not previously defined (ServoREV)
Error[152]  : Executable code and data must be defined in an appropriate section
000000                00134                 MOVFF   WREG,ServoREV
Error[113]  : Symbol not previously defined (WREG)
Error[152]  : Executable code and data must be defined in an appropriate section
Error[113]  : Symbol not previously defined (ServoREV)
Error[152]  : Executable code and data must be defined in an appropriate section
000000                00135                 MOVFF   WREG,ServoREV+1         ; Need two copies to see if user makes a change
                      00136                 ; End of reverse flag code
Error[113]  : Symbol not previously defined (Mult1616)
Error[152]  : Executable code and data must be defined in an appropriate section
Error[152]  : Executable code and data must be defined in an appropriate section
000000                00137                 CALL    Mult1616
Error[151]  : Operand contains unresolvable labels or is too complex
Error[152]  : Executable code and data must be defined in an appropriate section
Error[152]  : Executable code and data must be defined in an appropriate section
000000                00138                 CALL    Round256
Warning[207]: Found label after column 1. (MOVEC)
Error[122]  : Illegal opcode (D)
000000                00139                 MOVEC   D'256',DEXreg
Error[113]  : Symbol not previously defined (Divide2416)
Error[152]  : Executable code and data must be defined in an appropriate section
Error[152]  : Executable code and data must be defined in an appropriate section
000000                00140                 CALL    Divide2416
                      00141                 ; CEXreg = 1000*RTDWN/256
Warning[207]: Found label after column 1. (MOVE16)
Error[122]  : Illegal opcode (CENTER)
                      00142                 MOVE16  CENTER,RTDWN
Error[113]  : Symbol not previously defined (RTDWN)
Error[152]  : Executable code and data must be defined in an appropriate section
000000                00143                 MOVLB   HIGH RTDWN
Error[113]  : Symbol not previously defined (CEXreg)
Error[152]  : Executable code and data must be defined in an appropriate section
000000                00144                 MOVF    CEXreg,W
Error[113]  : Symbol not previously defined (RTDWN)
Error[152]  : Executable code and data must be defined in an appropriate section
000000                00145                 ADDWF   RTDWN,F
Error[113]  : Symbol not previously defined (CEXreg)
Error[152]  : Executable code and data must be defined in an appropriate section
000000                00146                 MOVF    CEXreg+1,W
MPASM  5.37                            UI.ASM   8-24-2010  6:19:47         PAGE 97


LOC  OBJECT CODE     LINE SOURCE TEXT
  VALUE

Error[113]  : Symbol not previously defined (RTDWN)
Error[152]  : Executable code and data must be defined in an appropriate section
000000                00147                 ADDWFC  RTDWN+1,F
                      00148                 ;
Error[113]  : Symbol not previously defined (CEXreg)
Error[152]  : Executable code and data must be defined in an appropriate section
000000                00149                 MOVF    CEXreg,W
Error[113]  : Symbol not previously defined (CENTER)
Error[152]  : Executable code and data must be defined in an appropriate section
000000                00150                 SUBWF   CENTER,F
Error[113]  : Symbol not previously defined (CEXreg)
Error[152]  : Executable code and data must be defined in an appropriate section
000000                00151                 MOVF    CEXreg+1,W
Error[113]  : Symbol not previously defined (CENTER)
Error[152]  : Executable code and data must be defined in an appropriate section
000000                00152                 SUBWFB  CENTER+1,F
                      00153                 ; Limit test
Warning[207]: Found label after column 1. (MOVE16)
Error[122]  : Illegal opcode (RTDWN)
                      00154                 MOVE16  RTDWN,AXreg
Error[113]  : Symbol not previously defined (ApplyLimit)
Error[152]  : Executable code and data must be defined in an appropriate section
Error[152]  : Executable code and data must be defined in an appropriate section
000000                00155                 CALL    ApplyLimit
Warning[207]: Found label after column 1. (MOVE16)
Error[122]  : Illegal opcode (AXreg)
000000                00156                 MOVE16  AXreg,RTDWN
Warning[207]: Found label after column 1. (MOVE16)
Error[122]  : Illegal opcode (CENTER)
000000                00157                 MOVE16  CENTER,AXreg
Error[113]  : Symbol not previously defined (ApplyLimit)
Error[152]  : Executable code and data must be defined in an appropriate section
Error[152]  : Executable code and data must be defined in an appropriate section
000000                00158                 CALL    ApplyLimit
Warning[207]: Found label after column 1. (MOVE16)
Error[122]  : Illegal opcode (AXreg)
000000                00159                 MOVE16  AXreg,CENTER
                      00160                 ;
Warning[207]: Found label after column 1. (MOVE16)
Error[122]  : Illegal opcode (AXregS)
                      00161                 MOVE16  AXregS,AXreg
Warning[207]: Found label after column 1. (MOVE16)
Error[122]  : Illegal opcode (BXregS)
                      00162                 MOVE16  BXregS,BXreg
Error[152]  : Executable code and data must be defined in an appropriate section
000000                00163                 RETURN
                      00164 
Error[150]  : Labels must be defined in a code or data section when making an object file
000000                00165 Convert2Gains
                      00166         ; RTDWN = ((RTDWN - CENTER) * 256)/1000
                      00167         ; LTUP =  ((CENTER - LTUP) * 256)/1000
                      00168         ; CENTER = CENTER
                      00169                 ; RTDWN
MPASM  5.37                            UI.ASM   8-24-2010  6:19:47         PAGE 98


LOC  OBJECT CODE     LINE SOURCE TEXT
  VALUE

Warning[207]: Found label after column 1. (MOVE16)
Error[122]  : Illegal opcode (AXreg)
                      00170                 MOVE16  AXreg,AXregS
Warning[207]: Found label after column 1. (MOVE16)
Error[122]  : Illegal opcode (BXreg)
                      00171                 MOVE16  BXreg,BXregS
Warning[207]: Found label after column 1. (MOVE16)
Error[122]  : Illegal opcode (RTDWN)
                      00172                 MOVE16  RTDWN,AXreg
Error[113]  : Symbol not previously defined (CENTER)
Error[152]  : Executable code and data must be defined in an appropriate section
000000                00173                 MOVF    CENTER,W
Error[113]  : Symbol not previously defined (AXreg)
Error[152]  : Executable code and data must be defined in an appropriate section
000000                00174                 SUBWF   AXreg,F
Error[113]  : Symbol not previously defined (CENTER)
Error[152]  : Executable code and data must be defined in an appropriate section
000000                00175                 MOVF    CENTER+1,W
Error[113]  : Symbol not previously defined (AXreg)
Error[152]  : Executable code and data must be defined in an appropriate section
000000                00176                 SUBWFB  AXreg+1,F
Warning[207]: Found label after column 1. (MOVEC)
Error[122]  : Illegal opcode (D)
000000                00177                 MOVEC   D'256',BXreg
Error[113]  : Symbol not previously defined (Mult1616)
Error[152]  : Executable code and data must be defined in an appropriate section
Error[152]  : Executable code and data must be defined in an appropriate section
000000                00178                 CALL    Mult1616
Error[151]  : Operand contains unresolvable labels or is too complex
Error[152]  : Executable code and data must be defined in an appropriate section
Error[152]  : Executable code and data must be defined in an appropriate section
000000                00179                 CALL    Round1000
Warning[207]: Found label after column 1. (MOVEC)
Error[122]  : Illegal opcode (D)
000000                00180                 MOVEC   D'1000',DEXreg
Error[113]  : Symbol not previously defined (Divide2416)
Error[152]  : Executable code and data must be defined in an appropriate section
Error[152]  : Executable code and data must be defined in an appropriate section
000000                00181                 CALL    Divide2416
Warning[207]: Found label after column 1. (MOVE16)
Error[122]  : Illegal opcode (CEXreg)
000000                00182                 MOVE16  CEXreg,RTDWN
                      00183                 ; LTUP
Warning[207]: Found label after column 1. (MOVE16)
Error[122]  : Illegal opcode (CENTER)
                      00184                 MOVE16  CENTER,AXreg
Error[113]  : Symbol not previously defined (LTUP)
Error[152]  : Executable code and data must be defined in an appropriate section
000000                00185                 MOVF    LTUP,W
Error[113]  : Symbol not previously defined (AXreg)
Error[152]  : Executable code and data must be defined in an appropriate section
000000                00186                 SUBWF   AXreg,F
Error[113]  : Symbol not previously defined (LTUP)
MPASM  5.37                            UI.ASM   8-24-2010  6:19:47         PAGE 99


LOC  OBJECT CODE     LINE SOURCE TEXT
  VALUE

Error[152]  : Executable code and data must be defined in an appropriate section
000000                00187                 MOVF    LTUP+1,W
Error[113]  : Symbol not previously defined (AXreg)
Error[152]  : Executable code and data must be defined in an appropriate section
000000                00188                 SUBWFB  AXreg+1,F
Warning[207]: Found label after column 1. (MOVEC)
Error[122]  : Illegal opcode (D)
000000                00189                 MOVEC   D'256',BXreg
Error[113]  : Symbol not previously defined (Mult1616)
Error[152]  : Executable code and data must be defined in an appropriate section
Error[152]  : Executable code and data must be defined in an appropriate section
000000                00190                 CALL    Mult1616
Error[151]  : Operand contains unresolvable labels or is too complex
Error[152]  : Executable code and data must be defined in an appropriate section
Error[152]  : Executable code and data must be defined in an appropriate section
000000                00191                 CALL    Round1000
Warning[207]: Found label after column 1. (MOVEC)
Error[122]  : Illegal opcode (D)
000000                00192                 MOVEC   D'1000',DEXreg
Error[113]  : Symbol not previously defined (Divide2416)
Error[152]  : Executable code and data must be defined in an appropriate section
Error[152]  : Executable code and data must be defined in an appropriate section
000000                00193                 CALL    Divide2416
Warning[207]: Found label after column 1. (MOVE16)
Error[122]  : Illegal opcode (CEXreg)
000000                00194                 MOVE16  CEXreg,LTUP
Warning[207]: Found label after column 1. (MOVE16)
Error[122]  : Illegal opcode (AXregS)
000000                00195                 MOVE16  AXregS,AXreg
Warning[207]: Found label after column 1. (MOVE16)
Error[122]  : Illegal opcode (BXregS)
000000                00196                 MOVE16  BXregS,BXreg
Error[152]  : Executable code and data must be defined in an appropriate section
000000                00197                 RETURN
Error[150]  : Labels must be defined in a code or data section when making an object file
000000                00198 Convert2GainsNC
                      00199         ; RTDWN = ((RTDWN - CENTER) * 256)/2000
                      00200         ; CENTER = CENTER + (1000*RTDWN)/256
Warning[207]: Found label after column 1. (MOVE16)
Error[122]  : Illegal opcode (AXreg)
                      00201                 MOVE16  AXreg,AXregS
Warning[207]: Found label after column 1. (MOVE16)
Error[122]  : Illegal opcode (BXreg)
                      00202                 MOVE16  BXreg,BXregS
Warning[207]: Found label after column 1. (MOVE16)
Error[122]  : Illegal opcode (RTDWN)
                      00203                 MOVE16  RTDWN,AXreg
Error[113]  : Symbol not previously defined (CENTER)
Error[152]  : Executable code and data must be defined in an appropriate section
000000                00204                 MOVLB   HIGH CENTER
Error[113]  : Symbol not previously defined (CENTER)
Error[152]  : Executable code and data must be defined in an appropriate section
000000                00205                 MOVF    CENTER,W
MPASM  5.37                            UI.ASM   8-24-2010  6:19:47         PAGE 100


LOC  OBJECT CODE     LINE SOURCE TEXT
  VALUE

Error[113]  : Symbol not previously defined (AXreg)
Error[152]  : Executable code and data must be defined in an appropriate section
000000                00206                 SUBWF   AXreg,F
Error[113]  : Symbol not previously defined (CENTER)
Error[152]  : Executable code and data must be defined in an appropriate section
000000                00207                 MOVF    CENTER+1,W
Error[113]  : Symbol not previously defined (AXreg)
Error[152]  : Executable code and data must be defined in an appropriate section
000000                00208                 SUBWFB  AXreg+1,F
Warning[207]: Found label after column 1. (MOVEC)
Error[122]  : Illegal opcode (D)
000000                00209                 MOVEC   D'256',BXreg
Error[113]  : Symbol not previously defined (Mult1616)
Error[152]  : Executable code and data must be defined in an appropriate section
Error[152]  : Executable code and data must be defined in an appropriate section
000000                00210                 CALL    Mult1616
Error[151]  : Operand contains unresolvable labels or is too complex
Error[152]  : Executable code and data must be defined in an appropriate section
Error[152]  : Executable code and data must be defined in an appropriate section
000000                00211                 CALL    Round1000
Error[151]  : Operand contains unresolvable labels or is too complex
Error[152]  : Executable code and data must be defined in an appropriate section
Error[152]  : Executable code and data must be defined in an appropriate section
000000                00212                 CALL    Round1000
Warning[207]: Found label after column 1. (MOVEC)
Error[122]  : Illegal opcode (D)
000000                00213                 MOVEC   D'2000',DEXreg
Error[113]  : Symbol not previously defined (Divide2416)
Error[152]  : Executable code and data must be defined in an appropriate section
Error[152]  : Executable code and data must be defined in an appropriate section
000000                00214                 CALL    Divide2416
Warning[207]: Found label after column 1. (MOVE16)
Error[122]  : Illegal opcode (CEXreg)
000000                00215                 MOVE16  CEXreg,RTDWN
                      00216                 ;
Warning[207]: Found label after column 1. (MOVE16)
Error[122]  : Illegal opcode (RTDWN)
                      00217                 MOVE16  RTDWN,AXreg
Warning[207]: Found label after column 1. (MOVEC)
Error[122]  : Illegal opcode (D)
                      00218                 MOVEC   D'1000',BXreg
Error[113]  : Symbol not previously defined (Mult1616)
Error[152]  : Executable code and data must be defined in an appropriate section
Error[152]  : Executable code and data must be defined in an appropriate section
000000                00219                 CALL    Mult1616
Error[151]  : Operand contains unresolvable labels or is too complex
Error[152]  : Executable code and data must be defined in an appropriate section
Error[152]  : Executable code and data must be defined in an appropriate section
000000                00220                 CALL    Round256
Warning[207]: Found label after column 1. (MOVEC)
Error[122]  : Illegal opcode (D)
000000                00221                 MOVEC   D'256',DEXreg
Error[113]  : Symbol not previously defined (Divide2416)
MPASM  5.37                            UI.ASM   8-24-2010  6:19:47         PAGE 101


LOC  OBJECT CODE     LINE SOURCE TEXT
  VALUE

Error[152]  : Executable code and data must be defined in an appropriate section
Error[152]  : Executable code and data must be defined in an appropriate section
000000                00222                 CALL    Divide2416
Error[113]  : Symbol not previously defined (CENTER)
Error[152]  : Executable code and data must be defined in an appropriate section
000000                00223                 MOVLB   HIGH CENTER
Error[113]  : Symbol not previously defined (CEXreg)
Error[152]  : Executable code and data must be defined in an appropriate section
000000                00224                 MOVF    CEXreg,W
Error[113]  : Symbol not previously defined (CENTER)
Error[152]  : Executable code and data must be defined in an appropriate section
000000                00225                 ADDWF   CENTER,F
Error[113]  : Symbol not previously defined (CEXreg)
Error[152]  : Executable code and data must be defined in an appropriate section
000000                00226                 MOVF    CEXreg+1,W
Error[113]  : Symbol not previously defined (CENTER)
Error[152]  : Executable code and data must be defined in an appropriate section
000000                00227                 ADDWFC  CENTER+1,F
                      00228                 ;
Warning[207]: Found label after column 1. (MOVE16)
Error[122]  : Illegal opcode (AXregS)
                      00229                 MOVE16  AXregS,AXreg
Warning[207]: Found label after column 1. (MOVE16)
Error[122]  : Illegal opcode (BXregS)
                      00230                 MOVE16  BXregS,BXreg
Error[152]  : Executable code and data must be defined in an appropriate section
000000                00231                 RETURN
                      00232 
                      00233 ; If Auto Trim button was pressed and we were adjusting 
                      00234 ; a servo limit, then apply it to the other limit, with
                      00235 ; equal extent...
Error[150]  : Labels must be defined in a code or data section when making an object file
000000                00236 ApplySymSet     
Warning[207]: Found label after column 1. (MOVE16)
Error[122]  : Illegal opcode (AXreg)
000000                00237                 MOVE16  AXreg,AXregS
Warning[207]: Found label after column 1. (MOVE16)
Error[122]  : Illegal opcode (BXreg)
000000                00238                 MOVE16  BXreg,BXregS
Error[113]  : Symbol not previously defined (SymSet)
Error[152]  : Executable code and data must be defined in an appropriate section
000000                00239                 MOVLB   HIGH SymSet
Error[113]  : Symbol not previously defined (SymSet)
Error[152]  : Executable code and data must be defined in an appropriate section
000000                00240                 BTFSS   SymSet,0
Error[151]  : Operand contains unresolvable labels or is too complex
Error[152]  : Executable code and data must be defined in an appropriate section
Error[152]  : Executable code and data must be defined in an appropriate section
000000                00241                 GOTO    NoAT
                      00242                 ; Here if the Auto Trim button was set, BXreg points to the var
                      00243                 ; of intrest.
                      00244                 ; Does BXreg point to RTDWN, if so LTUP = 2*CENTER - RTDWN
Error[113]  : Symbol not previously defined (RTDWN)
MPASM  5.37                            UI.ASM   8-24-2010  6:19:47         PAGE 102


LOC  OBJECT CODE     LINE SOURCE TEXT
  VALUE

Error[152]  : Executable code and data must be defined in an appropriate section
000000                00245                 MOVLW   HIGH RTDWN
Error[113]  : Symbol not previously defined (BXreg)
Error[152]  : Executable code and data must be defined in an appropriate section
000000                00246                 MOVLB   HIGH BXreg
Error[113]  : Symbol not previously defined (BXreg)
Error[152]  : Executable code and data must be defined in an appropriate section
000000                00247                 XORWF   BXreg,W
Error[113]  : Symbol not previously defined (Z)
Error[113]  : Symbol not previously defined (ALUSTA)
Error[113]  : Symbol not previously defined (A)
Error[152]  : Executable code and data must be defined in an appropriate section
000000                00248                 BTFSC   ALUSTA,Z,A
Error[151]  : Operand contains unresolvable labels or is too complex
Error[152]  : Executable code and data must be defined in an appropriate section
Error[152]  : Executable code and data must be defined in an appropriate section
000000                00249                 GOTO    NotRTDWN
                      00250                 ; Here if its RTDWN
Warning[207]: Found label after column 1. (MOVE16)
Error[122]  : Illegal opcode (CENTER)
                      00251                 MOVE16  CENTER,CEXreg
Error[113]  : Symbol not previously defined (C)
Error[113]  : Symbol not previously defined (ALUSTA)
Error[113]  : Symbol not previously defined (A)
Error[152]  : Executable code and data must be defined in an appropriate section
000000                00252                 BCF     ALUSTA,C,A
Error[113]  : Symbol not previously defined (CEXreg)
Error[152]  : Executable code and data must be defined in an appropriate section
000000                00253                 RLCF    CEXreg
Error[113]  : Symbol not previously defined (CEXreg)
Error[152]  : Executable code and data must be defined in an appropriate section
000000                00254                 RLCF    CEXreg+1
Error[113]  : Symbol not previously defined (RTDWN)
Error[152]  : Executable code and data must be defined in an appropriate section
000000                00255                 MOVF    RTDWN,W
Error[113]  : Symbol not previously defined (CEXreg)
Error[152]  : Executable code and data must be defined in an appropriate section
000000                00256                 SUBWF   CEXreg
Error[113]  : Symbol not previously defined (RTDWN)
Error[152]  : Executable code and data must be defined in an appropriate section
000000                00257                 MOVF    RTDWN+1,W
Error[113]  : Symbol not previously defined (CEXreg)
Error[152]  : Executable code and data must be defined in an appropriate section
000000                00258                 SUBWFB  CEXreg+1
Warning[207]: Found label after column 1. (MOVE16)
Error[122]  : Illegal opcode (CEXreg)
000000                00259                 MOVE16  CEXreg,LTUP
Error[151]  : Operand contains unresolvable labels or is too complex
Error[152]  : Executable code and data must be defined in an appropriate section
Error[152]  : Executable code and data must be defined in an appropriate section
000000                00260                 GOTO    NoAT
                      00261                 ; Does BXreg point to LTUP, if so RTDWN = 2*CENTER - LTUP
Error[150]  : Labels must be defined in a code or data section when making an object file
MPASM  5.37                            UI.ASM   8-24-2010  6:19:47         PAGE 103


LOC  OBJECT CODE     LINE SOURCE TEXT
  VALUE

000000                00262 NotRTDWN
Error[113]  : Symbol not previously defined (LTUP)
Error[152]  : Executable code and data must be defined in an appropriate section
000000                00263                 MOVLW   HIGH LTUP
Error[113]  : Symbol not previously defined (BXreg)
Error[152]  : Executable code and data must be defined in an appropriate section
000000                00264                 MOVLB   HIGH BXreg
Error[113]  : Symbol not previously defined (BXreg)
Error[152]  : Executable code and data must be defined in an appropriate section
000000                00265                 XORWF   BXreg,W
Error[113]  : Symbol not previously defined (Z)
Error[113]  : Symbol not previously defined (ALUSTA)
Error[113]  : Symbol not previously defined (A)
Error[152]  : Executable code and data must be defined in an appropriate section
000000                00266                 BTFSC   ALUSTA,Z,A
Error[151]  : Operand contains unresolvable labels or is too complex
Error[152]  : Executable code and data must be defined in an appropriate section
Error[152]  : Executable code and data must be defined in an appropriate section
000000                00267                 GOTO    NoAT
                      00268                 ; Here if its RTDWN
Warning[207]: Found label after column 1. (MOVE16)
Error[122]  : Illegal opcode (CENTER)
                      00269                 MOVE16  CENTER,CEXreg
Error[113]  : Symbol not previously defined (C)
Error[113]  : Symbol not previously defined (ALUSTA)
Error[113]  : Symbol not previously defined (A)
Error[152]  : Executable code and data must be defined in an appropriate section
000000                00270                 BCF     ALUSTA,C,A
Error[113]  : Symbol not previously defined (CEXreg)
Error[152]  : Executable code and data must be defined in an appropriate section
000000                00271                 RLCF    CEXreg
Error[113]  : Symbol not previously defined (CEXreg)
Error[152]  : Executable code and data must be defined in an appropriate section
000000                00272                 RLCF    CEXreg+1
Error[113]  : Symbol not previously defined (LTUP)
Error[152]  : Executable code and data must be defined in an appropriate section
000000                00273                 MOVF    LTUP,W
Error[113]  : Symbol not previously defined (CEXreg)
Error[152]  : Executable code and data must be defined in an appropriate section
000000                00274                 SUBWF   CEXreg
Error[113]  : Symbol not previously defined (LTUP)
Error[152]  : Executable code and data must be defined in an appropriate section
000000                00275                 MOVF    LTUP+1,W
Error[113]  : Symbol not previously defined (CEXreg)
Error[152]  : Executable code and data must be defined in an appropriate section
000000                00276                 SUBWFB  CEXreg+1
Warning[207]: Found label after column 1. (MOVE16)
Error[122]  : Illegal opcode (CEXreg)
000000                00277                 MOVE16  CEXreg,RTDWN
                      00278                 ; Test the exit flag
Error[150]  : Labels must be defined in a code or data section when making an object file
000000                00279 NoAT
Warning[207]: Found label after column 1. (MOVE16)
MPASM  5.37                            UI.ASM   8-24-2010  6:19:47         PAGE 104


LOC  OBJECT CODE     LINE SOURCE TEXT
  VALUE

Error[122]  : Illegal opcode (AXregS)
000000                00280                 MOVE16  AXregS,AXreg
Warning[207]: Found label after column 1. (MOVE16)
Error[122]  : Illegal opcode (BXregS)
000000                00281                 MOVE16  BXregS,BXreg
Error[152]  : Executable code and data must be defined in an appropriate section
000000                00282                 RETURN
                      00283 
                      00284 
Error[150]  : Labels must be defined in a code or data section when making an object file
000000                00285 AilPre
                      00286         ; Move the Aileron servo parameters into the general area
                      00287         ; and convert gains into positions in uS
Error[113]  : Symbol not previously defined (chAIL)
Error[152]  : Executable code and data must be defined in an appropriate section
000000                00288                 MOVLW   chAIL
Error[113]  : Symbol not previously defined (DriveCh)
Error[152]  : Executable code and data must be defined in an appropriate section
000000                00289                 MOVLB   HIGH DriveCh
Error[113]  : Symbol not previously defined (DriveCh)
Error[152]  : Executable code and data must be defined in an appropriate section
000000                00290                 MOVWF   DriveCh
Warning[207]: Found label after column 1. (MOVEC)
Error[122]  : Illegal opcode (AM1H)
000000                00291                 MOVEC   AM1H,Src
Error[150]  : Labels must be defined in a code or data section when making an object file
000000                00292 AERPre  ; This is a common entry point for the Aileron Elevetor and Rudder Pre
                      00293         ; routines
Warning[207]: Found label after column 1. (MOVEC)
Error[122]  : Illegal opcode (RTDWN)
                      00294                 MOVEC   RTDWN,Dst
Error[152]  : Executable code and data must be defined in an appropriate section
000000                00295                 MOVLW   D'11'
Error[113]  : Symbol not previously defined (Cnt)
Error[152]  : Executable code and data must be defined in an appropriate section
000000                00296                 MOVWF   Cnt
Error[113]  : Symbol not previously defined (BlkMove)
Error[152]  : Executable code and data must be defined in an appropriate section
Error[152]  : Executable code and data must be defined in an appropriate section
000000                00297                 CALL    BlkMove
Error[113]  : Symbol not previously defined (ATRST)
Error[152]  : Executable code and data must be defined in an appropriate section
000000                00298                 CLRF    ATRST
                      00299         ; Convert into times
Error[151]  : Operand contains unresolvable labels or is too complex
Error[152]  : Executable code and data must be defined in an appropriate section
Error[152]  : Executable code and data must be defined in an appropriate section
000000                00300                 CALL    Convert2Times
Error[152]  : Executable code and data must be defined in an appropriate section
000000                00301                 RETURN
Error[150]  : Labels must be defined in a code or data section when making an object file
000000                00302 ElePre
Error[113]  : Symbol not previously defined (chELE)
MPASM  5.37                            UI.ASM   8-24-2010  6:19:47         PAGE 105


LOC  OBJECT CODE     LINE SOURCE TEXT
  VALUE

Error[152]  : Executable code and data must be defined in an appropriate section
000000                00303                 MOVLW   chELE
Error[113]  : Symbol not previously defined (DriveCh)
Error[152]  : Executable code and data must be defined in an appropriate section
000000                00304                 MOVLB   HIGH DriveCh
Error[113]  : Symbol not previously defined (DriveCh)
Error[152]  : Executable code and data must be defined in an appropriate section
000000                00305                 MOVWF   DriveCh
Warning[207]: Found label after column 1. (MOVEC)
Error[122]  : Illegal opcode (EM1H)
000000                00306                 MOVEC   EM1H,Src
Error[151]  : Operand contains unresolvable labels or is too complex
Error[152]  : Executable code and data must be defined in an appropriate section
Error[152]  : Executable code and data must be defined in an appropriate section
000000                00307                 GOTO    AERPre
Error[150]  : Labels must be defined in a code or data section when making an object file
000000                00308 RudPre
Error[113]  : Symbol not previously defined (chRUD)
Error[152]  : Executable code and data must be defined in an appropriate section
000000                00309                 MOVLW   chRUD
Error[113]  : Symbol not previously defined (DriveCh)
Error[152]  : Executable code and data must be defined in an appropriate section
000000                00310                 MOVLB   HIGH DriveCh
Error[113]  : Symbol not previously defined (DriveCh)
Error[152]  : Executable code and data must be defined in an appropriate section
000000                00311                 MOVWF   DriveCh
Warning[207]: Found label after column 1. (MOVEC)
Error[122]  : Illegal opcode (RM1H)
000000                00312                 MOVEC   RM1H,Src
Error[151]  : Operand contains unresolvable labels or is too complex
Error[152]  : Executable code and data must be defined in an appropriate section
Error[152]  : Executable code and data must be defined in an appropriate section
000000                00313                 GOTO    AERPre
                      00314 
Error[150]  : Labels must be defined in a code or data section when making an object file
000000                00315 AilPost
Warning[207]: Found label after column 1. (MOVEC)
Error[122]  : Illegal opcode (AM1H)
000000                00316                 MOVEC   AM1H,Dst
Error[150]  : Labels must be defined in a code or data section when making an object file
000000                00317 AERPost ; This is a common entry point for the Aileron Elevetor and Rudder Post
                      00318         ; routines
                      00319         ; Apply the Symertical set routine
Error[151]  : Operand contains unresolvable labels or is too complex
Error[152]  : Executable code and data must be defined in an appropriate section
Error[152]  : Executable code and data must be defined in an appropriate section
000000                00320                 CALL    ApplySymSet
                      00321         ; Test for autotrim reset
Error[113]  : Symbol not previously defined (ATRST)
Error[152]  : Executable code and data must be defined in an appropriate section
000000                00322                 BTFSS   ATRST,0
Error[113]  : Symbol not previously defined (ATRM)
Error[152]  : Executable code and data must be defined in an appropriate section
MPASM  5.37                            UI.ASM   8-24-2010  6:19:47         PAGE 106


LOC  OBJECT CODE     LINE SOURCE TEXT
  VALUE

000000                00323                 CLRF    ATRM
                      00324         ; Now convert back to the radios units
Error[151]  : Operand contains unresolvable labels or is too complex
Error[152]  : Executable code and data must be defined in an appropriate section
Error[152]  : Executable code and data must be defined in an appropriate section
000000                00325                 CALL    Convert2Gains
                      00326         ; Move the results back
Warning[207]: Found label after column 1. (MOVEC)
Error[122]  : Illegal opcode (RTDWN)
                      00327                 MOVEC   RTDWN,Src
Error[152]  : Executable code and data must be defined in an appropriate section
000000                00328                 MOVLW   D'11'
Error[113]  : Symbol not previously defined (Cnt)
Error[152]  : Executable code and data must be defined in an appropriate section
000000                00329                 MOVWF   Cnt
Error[113]  : Symbol not previously defined (BlkMove)
Error[152]  : Executable code and data must be defined in an appropriate section
Error[152]  : Executable code and data must be defined in an appropriate section
000000                00330                 CALL    BlkMove
                      00331         ; Clear the Drive Channel value
Error[113]  : Symbol not previously defined (DriveCh)
Error[152]  : Executable code and data must be defined in an appropriate section
000000                00332                 MOVLB   HIGH DriveCh
Error[113]  : Symbol not previously defined (DriveCh)
Error[152]  : Executable code and data must be defined in an appropriate section
000000                00333                 CLRF    DriveCh
Error[152]  : Executable code and data must be defined in an appropriate section
000000                00334                 RETURN
                      00335                 
Error[150]  : Labels must be defined in a code or data section when making an object file
000000                00336 ElePost
Warning[207]: Found label after column 1. (MOVEC)
Error[122]  : Illegal opcode (EM1H)
000000                00337                 MOVEC   EM1H,Dst
Error[151]  : Operand contains unresolvable labels or is too complex
Error[152]  : Executable code and data must be defined in an appropriate section
Error[152]  : Executable code and data must be defined in an appropriate section
000000                00338                 GOTO    AERPost
                      00339 
Error[150]  : Labels must be defined in a code or data section when making an object file
000000                00340 RudPost
Warning[207]: Found label after column 1. (MOVEC)
Error[122]  : Illegal opcode (RM1H)
000000                00341                 MOVEC   RM1H,Dst
Error[151]  : Operand contains unresolvable labels or is too complex
Error[152]  : Executable code and data must be defined in an appropriate section
Error[152]  : Executable code and data must be defined in an appropriate section
000000                00342                 GOTO    AERPost
                      00343 
Error[150]  : Labels must be defined in a code or data section when making an object file
000000                00344 ThtPre
                      00345         ; Save registers
Warning[207]: Found label after column 1. (MOVE16)
MPASM  5.37                            UI.ASM   8-24-2010  6:19:47         PAGE 107


LOC  OBJECT CODE     LINE SOURCE TEXT
  VALUE

Error[122]  : Illegal opcode (AXreg)
                      00346                 MOVE16  AXreg,AXregS
Warning[207]: Found label after column 1. (MOVE16)
Error[122]  : Illegal opcode (BXreg)
                      00347                 MOVE16  BXreg,BXregS
                      00348         ; Convert all of the throttle parameters into uS
Error[113]  : Symbol not previously defined (TBH)
Error[152]  : Executable code and data must be defined in an appropriate section
000000                00349                 MOVLB   HIGH TBH
                      00350                 ; High
Warning[207]: Found label after column 1. (MOVE16)
Error[122]  : Illegal opcode (TMH)
                      00351                 MOVE16  TMH,AXreg
Warning[207]: Found label after column 1. (MOVEC)
Error[122]  : Illegal opcode (D)
                      00352                 MOVEC   D'1000',BXreg
                      00353                 ; If the gain is negative, set the reverse servo flag
Error[113]  : Symbol not previously defined (WREG)
Error[152]  : Executable code and data must be defined in an appropriate section
000000                00354                 CLRF    WREG
Error[113]  : Symbol not previously defined (AXreg)
Error[152]  : Executable code and data must be defined in an appropriate section
000000                00355                 BTFSC   AXreg+1,7
Error[113]  : Symbol not previously defined (WREG)
Error[152]  : Executable code and data must be defined in an appropriate section
000000                00356                 SETF    WREG
Error[113]  : Symbol not previously defined (WREG)
Error[152]  : Executable code and data must be defined in an appropriate section
Error[113]  : Symbol not previously defined (ServoREV)
Error[152]  : Executable code and data must be defined in an appropriate section
000000                00357                 MOVFF   WREG,ServoREV
Error[113]  : Symbol not previously defined (WREG)
Error[152]  : Executable code and data must be defined in an appropriate section
Error[113]  : Symbol not previously defined (ServoREV)
Error[152]  : Executable code and data must be defined in an appropriate section
000000                00358                 MOVFF   WREG,ServoREV+1         ; Need two copies to see if user makes a change
                      00359                 ; End of reverse flag code
Error[113]  : Symbol not previously defined (Mult1616)
Error[152]  : Executable code and data must be defined in an appropriate section
Error[152]  : Executable code and data must be defined in an appropriate section
000000                00360                 CALL    Mult1616
Warning[207]: Found label after column 1. (MOVEC)
Error[122]  : Illegal opcode (D)
000000                00361                 MOVEC   D'256',DEXreg
Error[113]  : Symbol not previously defined (Divide2416)
Error[152]  : Executable code and data must be defined in an appropriate section
Error[152]  : Executable code and data must be defined in an appropriate section
000000                00362                 CALL    Divide2416
Warning[207]: Found label after column 1. (MOVE16)
Error[122]  : Illegal opcode (CEXreg)
000000                00363                 MOVE16  CEXreg,TMH
Error[113]  : Symbol not previously defined (TBH)
Error[152]  : Executable code and data must be defined in an appropriate section
MPASM  5.37                            UI.ASM   8-24-2010  6:19:47         PAGE 108


LOC  OBJECT CODE     LINE SOURCE TEXT
  VALUE

000000                00364                 MOVLB   HIGH TBH
Error[113]  : Symbol not previously defined (TBH)
Error[152]  : Executable code and data must be defined in an appropriate section
000000                00365                 MOVF    TBH,W
Error[113]  : Symbol not previously defined (TMH)
Error[152]  : Executable code and data must be defined in an appropriate section
000000                00366                 ADDWF   TMH,F
Error[113]  : Symbol not previously defined (TBH)
Error[152]  : Executable code and data must be defined in an appropriate section
000000                00367                 MOVF    TBH+1,W
Error[113]  : Symbol not previously defined (TMH)
Error[152]  : Executable code and data must be defined in an appropriate section
000000                00368                 ADDWFC  TMH+1,F
                      00369         ; Restore registers
Warning[207]: Found label after column 1. (MOVE16)
Error[122]  : Illegal opcode (AXregS)
                      00370                 MOVE16  AXregS,AXreg
Warning[207]: Found label after column 1. (MOVE16)
Error[122]  : Illegal opcode (BXregS)
                      00371                 MOVE16  BXregS,BXreg
Error[152]  : Executable code and data must be defined in an appropriate section
000000                00372                 RETURN
                      00373 
Error[150]  : Labels must be defined in a code or data section when making an object file
000000                00374 ThtPost
                      00375         ; Save registers
Warning[207]: Found label after column 1. (MOVE16)
Error[122]  : Illegal opcode (AXreg)
                      00376                 MOVE16  AXreg,AXregS
Warning[207]: Found label after column 1. (MOVE16)
Error[122]  : Illegal opcode (BXreg)
                      00377                 MOVE16  BXreg,BXregS
                      00378         ; Restore the throttle parameters
                      00379                 ; High
Warning[207]: Found label after column 1. (MOVE16)
Error[122]  : Illegal opcode (TMH)
                      00380                 MOVE16  TMH,AXreg
Error[113]  : Symbol not previously defined (TMH)
Error[152]  : Executable code and data must be defined in an appropriate section
000000                00381                 MOVLB   HIGH TMH
Error[113]  : Symbol not previously defined (TBH)
Error[152]  : Executable code and data must be defined in an appropriate section
000000                00382                 MOVF    TBH,W
Error[113]  : Symbol not previously defined (AXreg)
Error[152]  : Executable code and data must be defined in an appropriate section
000000                00383                 MOVLB   HIGH AXreg
Error[113]  : Symbol not previously defined (AXreg)
Error[152]  : Executable code and data must be defined in an appropriate section
000000                00384                 SUBWF   AXreg,F
Error[113]  : Symbol not previously defined (TMH)
Error[152]  : Executable code and data must be defined in an appropriate section
000000                00385                 MOVLB   HIGH TMH
Error[113]  : Symbol not previously defined (TBH)
MPASM  5.37                            UI.ASM   8-24-2010  6:19:47         PAGE 109


LOC  OBJECT CODE     LINE SOURCE TEXT
  VALUE

Error[152]  : Executable code and data must be defined in an appropriate section
000000                00386                 MOVF    TBH+1,W
Error[113]  : Symbol not previously defined (AXreg)
Error[152]  : Executable code and data must be defined in an appropriate section
000000                00387                 MOVLB   HIGH AXreg
Error[113]  : Symbol not previously defined (AXreg)
Error[152]  : Executable code and data must be defined in an appropriate section
000000                00388                 SUBWFB  AXreg+1,F
Warning[207]: Found label after column 1. (MOVEC)
Error[122]  : Illegal opcode (D)
000000                00389                 MOVEC   D'256',BXreg
Error[113]  : Symbol not previously defined (Mult1616)
Error[152]  : Executable code and data must be defined in an appropriate section
Error[152]  : Executable code and data must be defined in an appropriate section
000000                00390                 CALL    Mult1616
Warning[207]: Found label after column 1. (MOVEC)
Error[122]  : Illegal opcode (D)
000000                00391                 MOVEC   D'1000',DEXreg
Error[113]  : Symbol not previously defined (Divide2416)
Error[152]  : Executable code and data must be defined in an appropriate section
Error[152]  : Executable code and data must be defined in an appropriate section
000000                00392                 CALL    Divide2416
Warning[207]: Found label after column 1. (MOVE16)
Error[122]  : Illegal opcode (CEXreg)
000000                00393                 MOVE16  CEXreg,TMH
                      00394         ; Restore registers
Warning[207]: Found label after column 1. (MOVE16)
Error[122]  : Illegal opcode (AXregS)
                      00395                 MOVE16  AXregS,AXreg
Warning[207]: Found label after column 1. (MOVE16)
Error[122]  : Illegal opcode (BXregS)
                      00396                 MOVE16  BXregS,BXreg
                      00397         ; Clear the Drive Channel value
Error[113]  : Symbol not previously defined (DriveCh)
Error[152]  : Executable code and data must be defined in an appropriate section
000000                00398                 MOVLB   HIGH DriveCh
Error[113]  : Symbol not previously defined (DriveCh)
Error[152]  : Executable code and data must be defined in an appropriate section
000000                00399                 CLRF    DriveCh
Error[152]  : Executable code and data must be defined in an appropriate section
000000                00400                 RETURN
                      00401 
Error[150]  : Labels must be defined in a code or data section when making an object file
000000                00402 CH5Pre
Error[113]  : Symbol not previously defined (chCH5)
Error[152]  : Executable code and data must be defined in an appropriate section
000000                00403                 MOVLW   chCH5
Error[113]  : Symbol not previously defined (DriveCh)
Error[152]  : Executable code and data must be defined in an appropriate section
000000                00404                 MOVLB   HIGH DriveCh
Error[113]  : Symbol not previously defined (DriveCh)
Error[152]  : Executable code and data must be defined in an appropriate section
000000                00405                 MOVWF   DriveCh
MPASM  5.37                            UI.ASM   8-24-2010  6:19:47         PAGE 110


LOC  OBJECT CODE     LINE SOURCE TEXT
  VALUE

                      00406         ; Move the CH5 servo parameters into the general area
                      00407         ; and convert gains into positions in uS
Warning[207]: Found label after column 1. (MOVEC)
Error[122]  : Illegal opcode (CH5MH)
                      00408                 MOVEC   CH5MH,Src
Error[150]  : Labels must be defined in a code or data section when making an object file
000000                00409 CH567Pre
Warning[207]: Found label after column 1. (MOVEC)
Error[122]  : Illegal opcode (RTDWN)
000000                00410                 MOVEC   RTDWN,Dst
Error[152]  : Executable code and data must be defined in an appropriate section
000000                00411                 MOVLW   4
Error[113]  : Symbol not previously defined (Cnt)
Error[152]  : Executable code and data must be defined in an appropriate section
000000                00412                 MOVWF   Cnt
Error[113]  : Symbol not previously defined (BlkMove)
Error[152]  : Executable code and data must be defined in an appropriate section
Error[152]  : Executable code and data must be defined in an appropriate section
000000                00413                 CALL    BlkMove
                      00414         ; Convert into times, as follows
Error[151]  : Operand contains unresolvable labels or is too complex
Error[152]  : Executable code and data must be defined in an appropriate section
Error[152]  : Executable code and data must be defined in an appropriate section
000000                00415                 CALL    Convert2TimesNC
Error[152]  : Executable code and data must be defined in an appropriate section
000000                00416                 RETURN
Error[150]  : Labels must be defined in a code or data section when making an object file
000000                00417 CH6Pre
Error[113]  : Symbol not previously defined (chCH6)
Error[152]  : Executable code and data must be defined in an appropriate section
000000                00418                 MOVLW   chCH6
Error[113]  : Symbol not previously defined (DriveCh)
Error[152]  : Executable code and data must be defined in an appropriate section
000000                00419                 MOVLB   HIGH DriveCh
Error[113]  : Symbol not previously defined (DriveCh)
Error[152]  : Executable code and data must be defined in an appropriate section
000000                00420                 MOVWF   DriveCh
Warning[207]: Found label after column 1. (MOVEC)
Error[122]  : Illegal opcode (CH6MH)
000000                00421                 MOVEC   CH6MH,Src
Error[151]  : Operand contains unresolvable labels or is too complex
Error[152]  : Executable code and data must be defined in an appropriate section
Error[152]  : Executable code and data must be defined in an appropriate section
000000                00422                 GOTO    CH567Pre
Error[150]  : Labels must be defined in a code or data section when making an object file
000000                00423 CH7Pre
Error[113]  : Symbol not previously defined (chCH7)
Error[152]  : Executable code and data must be defined in an appropriate section
000000                00424                 MOVLW   chCH7
Error[113]  : Symbol not previously defined (DriveCh)
Error[152]  : Executable code and data must be defined in an appropriate section
000000                00425                 MOVLB   HIGH DriveCh
Error[113]  : Symbol not previously defined (DriveCh)
MPASM  5.37                            UI.ASM   8-24-2010  6:19:47         PAGE 111


LOC  OBJECT CODE     LINE SOURCE TEXT
  VALUE

Error[152]  : Executable code and data must be defined in an appropriate section
000000                00426                 MOVWF   DriveCh
Warning[207]: Found label after column 1. (MOVEC)
Error[122]  : Illegal opcode (CH7MH)
000000                00427                 MOVEC   CH7MH,Src
Error[151]  : Operand contains unresolvable labels or is too complex
Error[152]  : Executable code and data must be defined in an appropriate section
Error[152]  : Executable code and data must be defined in an appropriate section
000000                00428                 GOTO    CH567Pre
                      00429                 
Error[150]  : Labels must be defined in a code or data section when making an object file
000000                00430 CH5Post
Warning[207]: Found label after column 1. (MOVEC)
Error[122]  : Illegal opcode (CH5MH)
000000                00431                 MOVEC   CH5MH,Dst
Error[150]  : Labels must be defined in a code or data section when making an object file
000000                00432 CH567Post
                      00433         ; Convert back to the radios units
Error[151]  : Operand contains unresolvable labels or is too complex
Error[152]  : Executable code and data must be defined in an appropriate section
Error[152]  : Executable code and data must be defined in an appropriate section
000000                00434                 CALL    Convert2GainsNC
                      00435         ; Move the results back
Warning[207]: Found label after column 1. (MOVEC)
Error[122]  : Illegal opcode (RTDWN)
                      00436                 MOVEC   RTDWN,Src
Error[152]  : Executable code and data must be defined in an appropriate section
000000                00437                 MOVLW   4
Error[113]  : Symbol not previously defined (Cnt)
Error[152]  : Executable code and data must be defined in an appropriate section
000000                00438                 MOVWF   Cnt
Error[113]  : Symbol not previously defined (BlkMove)
Error[152]  : Executable code and data must be defined in an appropriate section
Error[152]  : Executable code and data must be defined in an appropriate section
000000                00439                 CALL    BlkMove
                      00440         ; Clear the Drive Channel value
Error[113]  : Symbol not previously defined (DriveCh)
Error[152]  : Executable code and data must be defined in an appropriate section
000000                00441                 MOVLB   HIGH DriveCh
Error[113]  : Symbol not previously defined (DriveCh)
Error[152]  : Executable code and data must be defined in an appropriate section
000000                00442                 CLRF    DriveCh
Error[152]  : Executable code and data must be defined in an appropriate section
000000                00443                 RETURN
Error[150]  : Labels must be defined in a code or data section when making an object file
000000                00444 CH6Post
Warning[207]: Found label after column 1. (MOVEC)
Error[122]  : Illegal opcode (CH6MH)
000000                00445                 MOVEC   CH6MH,Dst
Error[151]  : Operand contains unresolvable labels or is too complex
Error[152]  : Executable code and data must be defined in an appropriate section
Error[152]  : Executable code and data must be defined in an appropriate section
000000                00446                 GOTO    CH567Post
MPASM  5.37                            UI.ASM   8-24-2010  6:19:47         PAGE 112


LOC  OBJECT CODE     LINE SOURCE TEXT
  VALUE

Error[150]  : Labels must be defined in a code or data section when making an object file
000000                00447 CH7Post
Warning[207]: Found label after column 1. (MOVEC)
Error[122]  : Illegal opcode (CH7MH)
000000                00448                 MOVEC   CH7MH,Dst
Error[151]  : Operand contains unresolvable labels or is too complex
Error[152]  : Executable code and data must be defined in an appropriate section
Error[152]  : Executable code and data must be defined in an appropriate section
000000                00449                 GOTO    CH567Post
Error[150]  : Labels must be defined in a code or data section when making an object file
000000                00450 CH8Pre
                      00451         ; Move the selected servo parameters into the general area
                      00452         ; and convert gains into positions in uS
Warning[207]: Found label after column 1. (MOVEC)
Error[122]  : Illegal opcode (CH8_A)
                      00453                 MOVEC   CH8_A,Src
Warning[207]: Found label after column 1. (MOVEC)
Error[122]  : Illegal opcode (RTDWN)
                      00454                 MOVEC   RTDWN,Dst
Error[152]  : Executable code and data must be defined in an appropriate section
000000                00455                 MOVLW   6
Error[113]  : Symbol not previously defined (Cnt)
Error[152]  : Executable code and data must be defined in an appropriate section
000000                00456                 MOVWF   Cnt
Error[113]  : Symbol not previously defined (BlkMove)
Error[152]  : Executable code and data must be defined in an appropriate section
Error[152]  : Executable code and data must be defined in an appropriate section
000000                00457                 CALL    BlkMove
                      00458         ; Convert into times, as follows
Error[151]  : Operand contains unresolvable labels or is too complex
Error[152]  : Executable code and data must be defined in an appropriate section
Error[152]  : Executable code and data must be defined in an appropriate section
000000                00459                 CALL    Convert2Times
Error[152]  : Executable code and data must be defined in an appropriate section
000000                00460                 RETURN
Error[150]  : Labels must be defined in a code or data section when making an object file
000000                00461 CH8Post
                      00462         ; Now convert back to the radios units
Error[151]  : Operand contains unresolvable labels or is too complex
Error[152]  : Executable code and data must be defined in an appropriate section
Error[152]  : Executable code and data must be defined in an appropriate section
000000                00463                 CALL    Convert2Gains
                      00464         ; Move the results back
Warning[207]: Found label after column 1. (MOVEC)
Error[122]  : Illegal opcode (RTDWN)
                      00465                 MOVEC   RTDWN,Src
Warning[207]: Found label after column 1. (MOVEC)
Error[122]  : Illegal opcode (CH8_A)
                      00466                 MOVEC   CH8_A,Dst
Error[152]  : Executable code and data must be defined in an appropriate section
000000                00467                 MOVLW   6
Error[113]  : Symbol not previously defined (Cnt)
Error[152]  : Executable code and data must be defined in an appropriate section
MPASM  5.37                            UI.ASM   8-24-2010  6:19:47         PAGE 113


LOC  OBJECT CODE     LINE SOURCE TEXT
  VALUE

000000                00468                 MOVWF   Cnt
Error[113]  : Symbol not previously defined (BlkMove)
Error[152]  : Executable code and data must be defined in an appropriate section
Error[152]  : Executable code and data must be defined in an appropriate section
000000                00469                 CALL    BlkMove
                      00470         ; Clear the Drive Channel value
Error[113]  : Symbol not previously defined (DriveCh)
Error[152]  : Executable code and data must be defined in an appropriate section
000000                00471                 MOVLB   HIGH DriveCh
Error[113]  : Symbol not previously defined (DriveCh)
Error[152]  : Executable code and data must be defined in an appropriate section
000000                00472                 CLRF    DriveCh
Error[152]  : Executable code and data must be defined in an appropriate section
000000                00473                 RETURN
                      00474 
                      00475 ; This function moves the servo limits to the min and max values
                      00476 ; used by the user interface input routines
Error[150]  : Labels must be defined in a code or data section when making an object file
000000                00477 SerLim
Warning[207]: Found label after column 1. (MOVE16)
Error[122]  : Illegal opcode (ServoMin)
000000                00478                 MOVE16  ServoMin,MinTime
Warning[207]: Found label after column 1. (MOVE16)
Error[122]  : Illegal opcode (ServoMax)
000000                00479                 MOVE16  ServoMax,MaxTime
Error[152]  : Executable code and data must be defined in an appropriate section
000000                00480                 RETURN
                      00481 
                      00482 
                      00483 ;
                      00484 ; The following routines are used for the servo direction reverse function.
                      00485 ;
Error[150]  : Labels must be defined in a code or data section when making an object file
000000                00486 SrevCPost
Warning[207]: Found label after column 1. (MOVE16)
Error[122]  : Illegal opcode (AXreg)
000000                00487                 MOVE16  AXreg,AXregS
Warning[207]: Found label after column 1. (MOVE16)
Error[122]  : Illegal opcode (BXreg)
000000                00488                 MOVE16  BXreg,BXregS
                      00489                 ; If the ServoREV flags do not match then the user has made a change so
                      00490                 ; reverse the position limits before proceeding
Error[113]  : Symbol not previously defined (ServoREV)
Error[152]  : Executable code and data must be defined in an appropriate section
000000                00491                 MOVLB   HIGH ServoREV
Error[113]  : Symbol not previously defined (ServoREV)
Error[152]  : Executable code and data must be defined in an appropriate section
Error[113]  : Symbol not previously defined (WREG)
Error[152]  : Executable code and data must be defined in an appropriate section
000000                00492                 MOVFF   ServoREV,WREG
Error[113]  : Symbol not previously defined (ServoREV)
Error[152]  : Executable code and data must be defined in an appropriate section
000000                00493                 XORWF   ServoREV+1
MPASM  5.37                            UI.ASM   8-24-2010  6:19:47         PAGE 114


LOC  OBJECT CODE     LINE SOURCE TEXT
  VALUE

Error[151]  : Operand contains unresolvable labels or is too complex
Error[152]  : Executable code and data must be defined in an appropriate section
000000                00494                 BZ      SCP_RevDone
Warning[207]: Found label after column 1. (MOVE16)
Error[122]  : Illegal opcode (RTDWN)
000000                00495                 MOVE16  RTDWN,AXreg
Warning[207]: Found label after column 1. (MOVE16)
Error[122]  : Illegal opcode (LTUP)
000000                00496                 MOVE16  LTUP,RTDWN
Warning[207]: Found label after column 1. (MOVE16)
Error[122]  : Illegal opcode (AXreg)
000000                00497                 MOVE16  AXreg,LTUP
Error[150]  : Labels must be defined in a code or data section when making an object file
000000                00498 SCP_RevDone     
Error[113]  : Symbol not previously defined (ServoREV)
Error[152]  : Executable code and data must be defined in an appropriate section
Error[113]  : Symbol not previously defined (WREG)
Error[152]  : Executable code and data must be defined in an appropriate section
000000                00499                 MOVFF   ServoREV,WREG
Error[113]  : Symbol not previously defined (WREG)
Error[152]  : Executable code and data must be defined in an appropriate section
Error[113]  : Symbol not previously defined (ServoREV)
Error[152]  : Executable code and data must be defined in an appropriate section
000000                00500                 MOVFF   WREG,ServoREV+1
                      00501                 ; End of servo reverse code
Warning[207]: Found label after column 1. (MOVE16)
Error[122]  : Illegal opcode (AXregS)
                      00502                 MOVE16  AXregS,AXreg
Warning[207]: Found label after column 1. (MOVE16)
Error[122]  : Illegal opcode (BXregS)
                      00503                 MOVE16  BXregS,BXreg
Error[152]  : Executable code and data must be defined in an appropriate section
000000                00504                 RETURN
                      00505 
Error[150]  : Labels must be defined in a code or data section when making an object file
000000                00506 SrevNCPost
Warning[207]: Found label after column 1. (MOVE16)
Error[122]  : Illegal opcode (AXreg)
000000                00507                 MOVE16  AXreg,AXregS
Warning[207]: Found label after column 1. (MOVE16)
Error[122]  : Illegal opcode (BXreg)
000000                00508                 MOVE16  BXreg,BXregS
                      00509                 ; If the ServoREV flags do not match then the user has made a change so
                      00510                 ; reverse the position limits before proceeding
Error[113]  : Symbol not previously defined (ServoREV)
Error[152]  : Executable code and data must be defined in an appropriate section
000000                00511                 MOVLB   HIGH ServoREV
Error[113]  : Symbol not previously defined (ServoREV)
Error[152]  : Executable code and data must be defined in an appropriate section
Error[113]  : Symbol not previously defined (WREG)
Error[152]  : Executable code and data must be defined in an appropriate section
000000                00512                 MOVFF   ServoREV,WREG
Error[113]  : Symbol not previously defined (ServoREV)
MPASM  5.37                            UI.ASM   8-24-2010  6:19:47         PAGE 115


LOC  OBJECT CODE     LINE SOURCE TEXT
  VALUE

Error[152]  : Executable code and data must be defined in an appropriate section
000000                00513                 XORWF   ServoREV+1
Error[151]  : Operand contains unresolvable labels or is too complex
Error[152]  : Executable code and data must be defined in an appropriate section
000000                00514                 BZ      SNCP_RevDone
Warning[207]: Found label after column 1. (MOVE16)
Error[122]  : Illegal opcode (RTDWN)
000000                00515                 MOVE16  RTDWN,AXreg
Warning[207]: Found label after column 1. (MOVE16)
Error[122]  : Illegal opcode (CENTER)
000000                00516                 MOVE16  CENTER,RTDWN
Warning[207]: Found label after column 1. (MOVE16)
Error[122]  : Illegal opcode (AXreg)
000000                00517                 MOVE16  AXreg,CENTER
Error[150]  : Labels must be defined in a code or data section when making an object file
000000                00518 SNCP_RevDone    
Error[113]  : Symbol not previously defined (ServoREV)
Error[152]  : Executable code and data must be defined in an appropriate section
Error[113]  : Symbol not previously defined (WREG)
Error[152]  : Executable code and data must be defined in an appropriate section
000000                00519                 MOVFF   ServoREV,WREG
Error[113]  : Symbol not previously defined (WREG)
Error[152]  : Executable code and data must be defined in an appropriate section
Error[113]  : Symbol not previously defined (ServoREV)
Error[152]  : Executable code and data must be defined in an appropriate section
000000                00520                 MOVFF   WREG,ServoREV+1
                      00521                 ; End of servo reverse code
Warning[207]: Found label after column 1. (MOVE16)
Error[122]  : Illegal opcode (AXregS)
                      00522                 MOVE16  AXregS,AXreg
Warning[207]: Found label after column 1. (MOVE16)
Error[122]  : Illegal opcode (BXregS)
                      00523                 MOVE16  BXregS,BXreg
Error[152]  : Executable code and data must be defined in an appropriate section
000000                00524                 RETURN
                      00525 
Error[150]  : Labels must be defined in a code or data section when making an object file
000000                00526 TrevPost
Warning[207]: Found label after column 1. (MOVE16)
Error[122]  : Illegal opcode (AXreg)
000000                00527                 MOVE16  AXreg,AXregS
Warning[207]: Found label after column 1. (MOVE16)
Error[122]  : Illegal opcode (BXreg)
000000                00528                 MOVE16  BXreg,BXregS
                      00529                 ; If the ServoREV flags do not match then the user has made a change so
                      00530                 ; reverse the position limits before proceeding
Error[113]  : Symbol not previously defined (ServoREV)
Error[152]  : Executable code and data must be defined in an appropriate section
000000                00531                 MOVLB   HIGH ServoREV
Error[113]  : Symbol not previously defined (ServoREV)
Error[152]  : Executable code and data must be defined in an appropriate section
Error[113]  : Symbol not previously defined (WREG)
Error[152]  : Executable code and data must be defined in an appropriate section
MPASM  5.37                            UI.ASM   8-24-2010  6:19:47         PAGE 116


LOC  OBJECT CODE     LINE SOURCE TEXT
  VALUE

000000                00532                 MOVFF   ServoREV,WREG
Error[113]  : Symbol not previously defined (ServoREV)
Error[152]  : Executable code and data must be defined in an appropriate section
000000                00533                 XORWF   ServoREV+1
Error[151]  : Operand contains unresolvable labels or is too complex
Error[152]  : Executable code and data must be defined in an appropriate section
000000                00534                 BZ      TP_RevDone
Warning[207]: Found label after column 1. (MOVE16)
Error[122]  : Illegal opcode (TBH)
000000                00535                 MOVE16  TBH,AXreg
Warning[207]: Found label after column 1. (MOVE16)
Error[122]  : Illegal opcode (TMH)
000000                00536                 MOVE16  TMH,TBH
Warning[207]: Found label after column 1. (MOVE16)
Error[122]  : Illegal opcode (AXreg)
000000                00537                 MOVE16  AXreg,TMH
Error[150]  : Labels must be defined in a code or data section when making an object file
000000                00538 TP_RevDone      
Error[113]  : Symbol not previously defined (ServoREV)
Error[152]  : Executable code and data must be defined in an appropriate section
Error[113]  : Symbol not previously defined (WREG)
Error[152]  : Executable code and data must be defined in an appropriate section
000000                00539                 MOVFF   ServoREV,WREG
Error[113]  : Symbol not previously defined (WREG)
Error[152]  : Executable code and data must be defined in an appropriate section
Error[113]  : Symbol not previously defined (ServoREV)
Error[152]  : Executable code and data must be defined in an appropriate section
000000                00540                 MOVFF   WREG,ServoREV+1
                      00541                 ; End of servo reverse code
Warning[207]: Found label after column 1. (MOVE16)
Error[122]  : Illegal opcode (AXregS)
                      00542                 MOVE16  AXregS,AXreg
Warning[207]: Found label after column 1. (MOVE16)
Error[122]  : Illegal opcode (BXregS)
                      00543                 MOVE16  BXregS,BXreg
Error[152]  : Executable code and data must be defined in an appropriate section
000000                00544                 RETURN
                      00545 
                      00546 
                      00547 ; The following code is used for the slew rate controls on CH 5 and
                      00548 ; CH 8.
                      00549 
                      00550 ; This function converts the step size into a servo transent time in
                      00551 ; .1 sec units.
Error[150]  : Labels must be defined in a code or data section when making an object file
000000                00552 PostCH5
                      00553         ; If user set the time to 0 then set the step size to 2000 and exit
Error[113]  : Symbol not previously defined (CH5stepSize)
Error[152]  : Executable code and data must be defined in an appropriate section
Error[113]  : Symbol not previously defined (WREG)
Error[152]  : Executable code and data must be defined in an appropriate section
000000                00554                 MOVFF   CH5stepSize,WREG
Error[113]  : Symbol not previously defined (WREG)
MPASM  5.37                            UI.ASM   8-24-2010  6:19:47         PAGE 117


LOC  OBJECT CODE     LINE SOURCE TEXT
  VALUE

Error[113]  : Symbol not previously defined (A)
Error[152]  : Executable code and data must be defined in an appropriate section
000000                00555                 TSTFSZ  WREG,A
Error[151]  : Operand contains unresolvable labels or is too complex
Error[152]  : Executable code and data must be defined in an appropriate section
Error[152]  : Executable code and data must be defined in an appropriate section
000000                00556                 GOTO    PreCH5
Warning[207]: Found label after column 1. (MOVEC)
Error[122]  : Illegal opcode (D)
000000                00557                 MOVEC   D'2000',CH5stepSize
Error[152]  : Executable code and data must be defined in an appropriate section
000000                00558                 RETURN
Error[150]  : Labels must be defined in a code or data section when making an object file
000000                00559 PreCH5
                      00560         ; t = 500 / step size
Error[113]  : Symbol not previously defined (WREG)
Error[152]  : Executable code and data must be defined in an appropriate section
000000                00561                 CLRF    WREG
Error[113]  : Symbol not previously defined (WREG)
Error[152]  : Executable code and data must be defined in an appropriate section
Error[113]  : Symbol not previously defined (CEXreg)
Error[152]  : Executable code and data must be defined in an appropriate section
000000                00562                 MOVFF   WREG,CEXreg+2
Warning[207]: Found label after column 1. (MOVEC)
Error[122]  : Illegal opcode (D)
000000                00563                 MOVEC   D'500',CEXreg
Warning[207]: Found label after column 1. (MOVE)
Error[122]  : Illegal opcode (CH5stepSize)
000000                00564                 MOVE    CH5stepSize,DEXreg
Error[113]  : Symbol not previously defined (Divide2416)
Error[152]  : Executable code and data must be defined in an appropriate section
Error[152]  : Executable code and data must be defined in an appropriate section
000000                00565                 CALL    Divide2416
                      00566         ; Move results to step size
Warning[207]: Found label after column 1. (MOVE)
Error[122]  : Illegal opcode (CEXreg)
                      00567                 MOVE    CEXreg,CH5stepSize
Error[113]  : Symbol not previously defined (WREG)
Error[152]  : Executable code and data must be defined in an appropriate section
000000                00568                 CLRF    WREG
Error[113]  : Symbol not previously defined (WREG)
Error[152]  : Executable code and data must be defined in an appropriate section
Error[113]  : Symbol not previously defined (CH5stepSize)
Error[152]  : Executable code and data must be defined in an appropriate section
000000                00569                 MOVFF   WREG,CH5stepSize+1
Error[113]  : Symbol not previously defined (CH5stepSize)
Error[152]  : Executable code and data must be defined in an appropriate section
Error[113]  : Symbol not previously defined (WREG)
Error[152]  : Executable code and data must be defined in an appropriate section
000000                00570                 MOVFF   CH5stepSize,WREG
Error[152]  : Executable code and data must be defined in an appropriate section
000000                00571                 RETURN
                      00572 
MPASM  5.37                            UI.ASM   8-24-2010  6:19:47         PAGE 118


LOC  OBJECT CODE     LINE SOURCE TEXT
  VALUE

Error[150]  : Labels must be defined in a code or data section when making an object file
000000                00573 PostCH8
                      00574         ; If user set the time to 0 then set the step size to 2000 and exit
Error[113]  : Symbol not previously defined (CH8stepSize)
Error[152]  : Executable code and data must be defined in an appropriate section
Error[113]  : Symbol not previously defined (WREG)
Error[152]  : Executable code and data must be defined in an appropriate section
000000                00575                 MOVFF   CH8stepSize,WREG
Error[113]  : Symbol not previously defined (WREG)
Error[113]  : Symbol not previously defined (A)
Error[152]  : Executable code and data must be defined in an appropriate section
000000                00576                 TSTFSZ  WREG,A
Error[151]  : Operand contains unresolvable labels or is too complex
Error[152]  : Executable code and data must be defined in an appropriate section
Error[152]  : Executable code and data must be defined in an appropriate section
000000                00577                 GOTO    PreCH8
Warning[207]: Found label after column 1. (MOVEC)
Error[122]  : Illegal opcode (D)
000000                00578                 MOVEC   D'2000',CH8stepSize
Error[152]  : Executable code and data must be defined in an appropriate section
000000                00579                 RETURN
Error[150]  : Labels must be defined in a code or data section when making an object file
000000                00580 PreCH8
                      00581         ; t = 500 / step size
Error[113]  : Symbol not previously defined (WREG)
Error[152]  : Executable code and data must be defined in an appropriate section
000000                00582                 CLRF    WREG
Error[113]  : Symbol not previously defined (WREG)
Error[152]  : Executable code and data must be defined in an appropriate section
Error[113]  : Symbol not previously defined (CEXreg)
Error[152]  : Executable code and data must be defined in an appropriate section
000000                00583                 MOVFF   WREG,CEXreg+2
Warning[207]: Found label after column 1. (MOVEC)
Error[122]  : Illegal opcode (D)
000000                00584                 MOVEC   D'500',CEXreg
Warning[207]: Found label after column 1. (MOVE)
Error[122]  : Illegal opcode (CH8stepSize)
000000                00585                 MOVE    CH8stepSize,DEXreg
Error[113]  : Symbol not previously defined (Divide2416)
Error[152]  : Executable code and data must be defined in an appropriate section
Error[152]  : Executable code and data must be defined in an appropriate section
000000                00586                 CALL    Divide2416
                      00587         ; Move results to step size
Warning[207]: Found label after column 1. (MOVE)
Error[122]  : Illegal opcode (CEXreg)
                      00588                 MOVE    CEXreg,CH8stepSize
Error[113]  : Symbol not previously defined (WREG)
Error[152]  : Executable code and data must be defined in an appropriate section
000000                00589                 CLRF    WREG
Error[113]  : Symbol not previously defined (WREG)
Error[152]  : Executable code and data must be defined in an appropriate section
Error[113]  : Symbol not previously defined (CH8stepSize)
Error[152]  : Executable code and data must be defined in an appropriate section
MPASM  5.37                            UI.ASM   8-24-2010  6:19:47         PAGE 119


LOC  OBJECT CODE     LINE SOURCE TEXT
  VALUE

000000                00590                 MOVFF   WREG,CH8stepSize+1
Error[113]  : Symbol not previously defined (CH8stepSize)
Error[152]  : Executable code and data must be defined in an appropriate section
Error[113]  : Symbol not previously defined (WREG)
Error[152]  : Executable code and data must be defined in an appropriate section
000000                00591                 MOVFF   CH8stepSize,WREG
Error[152]  : Executable code and data must be defined in an appropriate section
000000                00592                 RETURN
                      00593 
                      00594 ; This function will reset all the Sub Trim values to zero if the YESNO flag is
                      00595 ; set.
Error[150]  : Labels must be defined in a code or data section when making an object file
000000                00596 STreset
                      00597         ; Test the YESNO flag and exit if the flag is not set
Error[113]  : Symbol not previously defined (YESNO)
Error[152]  : Executable code and data must be defined in an appropriate section
000000                00598                 MOVLB   HIGH YESNO
Error[113]  : Symbol not previously defined (YESNO)
Error[152]  : Executable code and data must be defined in an appropriate section
000000                00599                 BTFSS   YESNO,7
Error[152]  : Executable code and data must be defined in an appropriate section
000000                00600                 RETURN
                      00601         ; Here to clear the sub trim values
Error[113]  : Symbol not previously defined (WREG)
Error[152]  : Executable code and data must be defined in an appropriate section
000000                00602                 CLRF    WREG
Error[113]  : Symbol not previously defined (WREG)
Error[152]  : Executable code and data must be defined in an appropriate section
Error[113]  : Symbol not previously defined (SubTrim)
Error[152]  : Executable code and data must be defined in an appropriate section
000000                00603                 MOVFF   WREG,SubTrim
Error[113]  : Symbol not previously defined (WREG)
Error[152]  : Executable code and data must be defined in an appropriate section
Error[113]  : Symbol not previously defined (SubTrim)
Error[152]  : Executable code and data must be defined in an appropriate section
000000                00604                 MOVFF   WREG,SubTrim+1
Error[113]  : Symbol not previously defined (WREG)
Error[152]  : Executable code and data must be defined in an appropriate section
Error[113]  : Symbol not previously defined (SubTrim)
Error[152]  : Executable code and data must be defined in an appropriate section
000000                00605                 MOVFF   WREG,SubTrim+2
Error[113]  : Symbol not previously defined (WREG)
Error[152]  : Executable code and data must be defined in an appropriate section
Error[113]  : Symbol not previously defined (SubTrim)
Error[152]  : Executable code and data must be defined in an appropriate section
000000                00606                 MOVFF   WREG,SubTrim+3
Error[113]  : Symbol not previously defined (WREG)
Error[152]  : Executable code and data must be defined in an appropriate section
Error[113]  : Symbol not previously defined (SubTrim)
Error[152]  : Executable code and data must be defined in an appropriate section
000000                00607                 MOVFF   WREG,SubTrim+4
Error[113]  : Symbol not previously defined (WREG)
Error[152]  : Executable code and data must be defined in an appropriate section
MPASM  5.37                            UI.ASM   8-24-2010  6:19:47         PAGE 120


LOC  OBJECT CODE     LINE SOURCE TEXT
  VALUE

Error[113]  : Symbol not previously defined (SubTrim)
Error[152]  : Executable code and data must be defined in an appropriate section
000000                00608                 MOVFF   WREG,SubTrim+5
Error[113]  : Symbol not previously defined (WREG)
Error[152]  : Executable code and data must be defined in an appropriate section
Error[113]  : Symbol not previously defined (SubTrim)
Error[152]  : Executable code and data must be defined in an appropriate section
000000                00609                 MOVFF   WREG,SubTrim+6
Error[113]  : Symbol not previously defined (WREG)
Error[152]  : Executable code and data must be defined in an appropriate section
Error[113]  : Symbol not previously defined (SubTrim)
Error[152]  : Executable code and data must be defined in an appropriate section
000000                00610                 MOVFF   WREG,SubTrim+7
Error[152]  : Executable code and data must be defined in an appropriate section
000000                00611                 RETURN
                      01564         Include <Mixers.asm>
                      00001 
                      00002 ; This file contains the Mixer User Interface Pre and Post functions. The 
                      00003 ; Pre function is called before the selected user interface option is processed
                      00004 ; by the user interface routines and the Post function is called after the
                      00005 ; user interface routine returns. These funtions move the mixer data into
                      00006 ; a generic area before the user adjusts parameters and returns the data to
                      00007 ; the correct specific place when finished.
                      00008 ;
                      00009 
                      00010 ; This is the function called before the specific mixer user interface 
                      00011 ; function is called. This routine moves the selected mixer data into
                      00012 ; the generic area and unpacks some of the data to allow the user to
                      00013 ; adjust the parameters.
                      00014 ;
                      00015 ; DXreg = Pointer to selected mixer data
Error[150]  : Labels must be defined in a code or data section when making an object file
000000                00016 PreMix
                      00017         ; Clear the Servo Update flag
Error[113]  : Symbol not previously defined (CalServoUpdate)
Error[152]  : Executable code and data must be defined in an appropriate section
000000                00018                 MOVLB   HIGH CalServoUpdate
Error[113]  : Symbol not previously defined (CalServoUpdate)
Error[152]  : Executable code and data must be defined in an appropriate section
000000                00019                 CLRF    CalServoUpdate
                      00020         ; Copy the selected mixer parameters to the working space
Warning[207]: Found label after column 1. (MOVE16)
Error[122]  : Illegal opcode (DXreg)
                      00021                 MOVE16  DXreg,Src
Warning[207]: Found label after column 1. (MOVEC)
Error[122]  : Illegal opcode (Mfrom)
                      00022                 MOVEC   Mfrom,Dst
Error[152]  : Executable code and data must be defined in an appropriate section
000000                00023                 MOVLW   5
Error[113]  : Symbol not previously defined (Cnt)
Error[152]  : Executable code and data must be defined in an appropriate section
000000                00024                 MOVWF   Cnt
Error[113]  : Symbol not previously defined (BlkMove)
MPASM  5.37                            UI.ASM   8-24-2010  6:19:47         PAGE 121


LOC  OBJECT CODE     LINE SOURCE TEXT
  VALUE

Error[152]  : Executable code and data must be defined in an appropriate section
Error[152]  : Executable code and data must be defined in an appropriate section
000000                00025                 CALL    BlkMove
Warning[207]: Found label after column 1. (MOVE16)
Error[122]  : Illegal opcode (DXreg)
000000                00026                 MOVE16  DXreg,Dst       ; Set the destination pointer for the post call
                      00027         ; Calculate the necessary flags
Error[113]  : Symbol not previously defined (Mfrom)
Error[152]  : Executable code and data must be defined in an appropriate section
000000                00028                 MOVLB   HIGH Mfrom
                      00029                 ; MS 4 bits of Mfrom channel define a table...
Error[113]  : Symbol not previously defined (Mfrom)
Error[152]  : Executable code and data must be defined in an appropriate section
000000                00030                 MOVF    Mfrom,W
Error[113]  : Symbol not previously defined (WREG)
Error[152]  : Executable code and data must be defined in an appropriate section
000000                00031                 SWAPF   WREG
Error[152]  : Executable code and data must be defined in an appropriate section
000000                00032                 ANDLW   0F
Error[113]  : Symbol not previously defined (Mtbl)
Error[152]  : Executable code and data must be defined in an appropriate section
000000                00033                 MOVWF   Mtbl
                      00034                 ; Bit 7 of Mto set = replace, 0 = add
Error[113]  : Symbol not previously defined (Mreplace)
Error[152]  : Executable code and data must be defined in an appropriate section
000000                00035                 CLRF    Mreplace
Error[113]  : Symbol not previously defined (Mto)
Error[152]  : Executable code and data must be defined in an appropriate section
000000                00036                 BTFSC   Mto,7
Error[113]  : Symbol not previously defined (Mreplace)
Error[152]  : Executable code and data must be defined in an appropriate section
000000                00037                 COMF    Mreplace,F
                      00038                 ; Bit 6 of Mto set = indirect positive gain, channel in Mpg
Error[113]  : Symbol not previously defined (Mpi)
Error[152]  : Executable code and data must be defined in an appropriate section
000000                00039                 CLRF    Mpi
Error[113]  : Symbol not previously defined (Mpg)
Error[152]  : Executable code and data must be defined in an appropriate section
000000                00040                 MOVF    Mpg,W
Error[113]  : Symbol not previously defined (Mto)
Error[152]  : Executable code and data must be defined in an appropriate section
000000                00041                 BTFSC   Mto,6
Error[113]  : Symbol not previously defined (Mpi)
Error[152]  : Executable code and data must be defined in an appropriate section
000000                00042                 MOVWF   Mpi
                      00043                 ; Bit 5 of Mto set = indirect negative gain, channel in Mng
Error[113]  : Symbol not previously defined (Mni)
Error[152]  : Executable code and data must be defined in an appropriate section
000000                00044                 CLRF    Mni
Error[113]  : Symbol not previously defined (Mng)
Error[152]  : Executable code and data must be defined in an appropriate section
000000                00045                 MOVF    Mng,W
Error[113]  : Symbol not previously defined (Mto)
MPASM  5.37                            UI.ASM   8-24-2010  6:19:47         PAGE 122


LOC  OBJECT CODE     LINE SOURCE TEXT
  VALUE

Error[152]  : Executable code and data must be defined in an appropriate section
000000                00046                 BTFSC   Mto,5
Error[113]  : Symbol not previously defined (Mni)
Error[152]  : Executable code and data must be defined in an appropriate section
000000                00047                 MOVWF   Mni
                      00048                 ; Clear all flag bits...
Error[152]  : Executable code and data must be defined in an appropriate section
000000                00049                 MOVLW   0F
Error[113]  : Symbol not previously defined (Mpi)
Error[152]  : Executable code and data must be defined in an appropriate section
000000                00050                 ANDWF   Mpi,F
Error[113]  : Symbol not previously defined (Mni)
Error[152]  : Executable code and data must be defined in an appropriate section
000000                00051                 ANDWF   Mni,F
Error[113]  : Symbol not previously defined (Mto)
Error[152]  : Executable code and data must be defined in an appropriate section
000000                00052                 ANDWF   Mto,F
Error[113]  : Symbol not previously defined (Mfrom)
Error[152]  : Executable code and data must be defined in an appropriate section
000000                00053                 ANDWF   Mfrom,F
Error[152]  : Executable code and data must be defined in an appropriate section
000000                00054                 RETURN
                      00055                 
                      00056 ; After the user has finished editing the selected mixer and has accepted 
                      00057 ; his options then this routine is called. The data is repacked as needed
                      00058 ; by the mixer functions and the data is moved from the generic area to the
                      00059 ; specific mixer location.
Error[150]  : Labels must be defined in a code or data section when making an object file
000000                00060 PostMix
                      00061         ; Restore all flag bits..
Error[113]  : Symbol not previously defined (Mfrom)
Error[152]  : Executable code and data must be defined in an appropriate section
000000                00062                 MOVLB   HIGH Mfrom
                      00063                 ; MS 4 bits of Mfrom channel define a table...
Error[113]  : Symbol not previously defined (Mtbl)
Error[152]  : Executable code and data must be defined in an appropriate section
000000                00064                 MOVF    Mtbl,W
Error[113]  : Symbol not previously defined (WREG)
Error[152]  : Executable code and data must be defined in an appropriate section
000000                00065                 SWAPF   WREG
Error[152]  : Executable code and data must be defined in an appropriate section
000000                00066                 ANDLW   0F0
Error[113]  : Symbol not previously defined (Mfrom)
Error[152]  : Executable code and data must be defined in an appropriate section
000000                00067                 IORWF   Mfrom,F
                      00068                 ; Bit 7 of Mto set = replace, 0 = add
Error[113]  : Symbol not previously defined (Mreplace)
Error[152]  : Executable code and data must be defined in an appropriate section
000000                00069                 BTFSC   Mreplace,7
Error[113]  : Symbol not previously defined (Mto)
Error[152]  : Executable code and data must be defined in an appropriate section
000000                00070                 BSF     Mto,7
                      00071                 ; Bit 6 of Mto set = indirect positive gain, channel in Mpg
MPASM  5.37                            UI.ASM   8-24-2010  6:19:47         PAGE 123


LOC  OBJECT CODE     LINE SOURCE TEXT
  VALUE

Error[113]  : Symbol not previously defined (Mpi)
Error[152]  : Executable code and data must be defined in an appropriate section
000000                00072                 MOVF    Mpi,W
Error[113]  : Symbol not previously defined (WREG)
Error[152]  : Executable code and data must be defined in an appropriate section
000000                00073                 IORWF   WREG            ; Set flags
Error[113]  : Symbol not previously defined (Z)
Error[113]  : Symbol not previously defined (ALUSTA)
Error[152]  : Executable code and data must be defined in an appropriate section
000000                00074                 BTFSC   ALUSTA,Z
Error[151]  : Operand contains unresolvable labels or is too complex
Error[152]  : Executable code and data must be defined in an appropriate section
Error[152]  : Executable code and data must be defined in an appropriate section
000000                00075                 GOTO    CMA1
Error[113]  : Symbol not previously defined (Mpi)
Error[152]  : Executable code and data must be defined in an appropriate section
000000                00076                 MOVF    Mpi,W
Error[113]  : Symbol not previously defined (Mpg)
Error[152]  : Executable code and data must be defined in an appropriate section
000000                00077                 MOVWF   Mpg
Error[113]  : Symbol not previously defined (Mto)
Error[152]  : Executable code and data must be defined in an appropriate section
000000                00078                 BSF     Mto,6
                      00079                 ; Bit 5 of Mto set = indirect negative gain, channel in Mng
Error[150]  : Labels must be defined in a code or data section when making an object file
000000                00080 CMA1
Error[113]  : Symbol not previously defined (Mni)
Error[152]  : Executable code and data must be defined in an appropriate section
000000                00081                 MOVF    Mni,W
Error[113]  : Symbol not previously defined (WREG)
Error[152]  : Executable code and data must be defined in an appropriate section
000000                00082                 IORWF   WREG            ; Set flags
Error[113]  : Symbol not previously defined (Z)
Error[113]  : Symbol not previously defined (ALUSTA)
Error[152]  : Executable code and data must be defined in an appropriate section
000000                00083                 BTFSC   ALUSTA,Z
Error[151]  : Operand contains unresolvable labels or is too complex
Error[152]  : Executable code and data must be defined in an appropriate section
Error[152]  : Executable code and data must be defined in an appropriate section
000000                00084                 GOTO    CMA2
Error[113]  : Symbol not previously defined (Mni)
Error[152]  : Executable code and data must be defined in an appropriate section
000000                00085                 MOVF    Mni,W
Error[113]  : Symbol not previously defined (Mng)
Error[152]  : Executable code and data must be defined in an appropriate section
000000                00086                 MOVWF   Mng
Error[113]  : Symbol not previously defined (Mto)
Error[152]  : Executable code and data must be defined in an appropriate section
000000                00087                 BSF     Mto,5
Error[150]  : Labels must be defined in a code or data section when making an object file
000000                00088 CMA2
                      00089         ; Write mixer data back to where it came
Warning[207]: Found label after column 1. (MOVEC)
MPASM  5.37                            UI.ASM   8-24-2010  6:19:47         PAGE 124


LOC  OBJECT CODE     LINE SOURCE TEXT
  VALUE

Error[122]  : Illegal opcode (Mfrom)
                      00090                 MOVEC   Mfrom,Src
Error[152]  : Executable code and data must be defined in an appropriate section
000000                00091                 MOVLW   5
Error[113]  : Symbol not previously defined (Cnt)
Error[152]  : Executable code and data must be defined in an appropriate section
000000                00092                 MOVWF   Cnt
Error[113]  : Symbol not previously defined (BlkMove)
Error[152]  : Executable code and data must be defined in an appropriate section
Error[152]  : Executable code and data must be defined in an appropriate section
000000                00093                 CALL    BlkMove
Error[152]  : Executable code and data must be defined in an appropriate section
000000                00094                 RETURN
                      00095                 
                      00096                 
Error[150]  : Labels must be defined in a code or data section when making an object file
000000                00097 PreA2R
Error[113]  : Symbol not previously defined (AilRudPos)
Error[152]  : Executable code and data must be defined in an appropriate section
Error[113]  : Symbol not previously defined (Mpg)
Error[152]  : Executable code and data must be defined in an appropriate section
000000                00098                 MOVFF   AilRudPos,Mpg
Error[113]  : Symbol not previously defined (AilRudNeg)
Error[152]  : Executable code and data must be defined in an appropriate section
Error[113]  : Symbol not previously defined (Mng)
Error[152]  : Executable code and data must be defined in an appropriate section
000000                00099                 MOVFF   AilRudNeg,Mng
Error[152]  : Executable code and data must be defined in an appropriate section
000000                00100                 RETURN
                      00101                 
Error[150]  : Labels must be defined in a code or data section when making an object file
000000                00102 PostA2R
Error[113]  : Symbol not previously defined (Mpg)
Error[152]  : Executable code and data must be defined in an appropriate section
Error[113]  : Symbol not previously defined (AilRudPos)
Error[152]  : Executable code and data must be defined in an appropriate section
000000                00103                 MOVFF   Mpg,AilRudPos
Error[113]  : Symbol not previously defined (Mng)
Error[152]  : Executable code and data must be defined in an appropriate section
Error[113]  : Symbol not previously defined (AilRudNeg)
Error[152]  : Executable code and data must be defined in an appropriate section
000000                00104                 MOVFF   Mng,AilRudNeg
Error[152]  : Executable code and data must be defined in an appropriate section
000000                00105                 RETURN
                      00106 
Error[150]  : Labels must be defined in a code or data section when making an object file
000000                00107 PreR2A
Error[113]  : Symbol not previously defined (RudAilPos)
Error[152]  : Executable code and data must be defined in an appropriate section
Error[113]  : Symbol not previously defined (Mpg)
Error[152]  : Executable code and data must be defined in an appropriate section
000000                00108                 MOVFF   RudAilPos,Mpg
Error[113]  : Symbol not previously defined (RudAilNeg)
MPASM  5.37                            UI.ASM   8-24-2010  6:19:47         PAGE 125


LOC  OBJECT CODE     LINE SOURCE TEXT
  VALUE

Error[152]  : Executable code and data must be defined in an appropriate section
Error[113]  : Symbol not previously defined (Mng)
Error[152]  : Executable code and data must be defined in an appropriate section
000000                00109                 MOVFF   RudAilNeg,Mng
Error[152]  : Executable code and data must be defined in an appropriate section
000000                00110                 RETURN
                      00111                 
Error[150]  : Labels must be defined in a code or data section when making an object file
000000                00112 PostR2A
Error[113]  : Symbol not previously defined (Mpg)
Error[152]  : Executable code and data must be defined in an appropriate section
Error[113]  : Symbol not previously defined (RudAilPos)
Error[152]  : Executable code and data must be defined in an appropriate section
000000                00113                 MOVFF   Mpg,RudAilPos
Error[113]  : Symbol not previously defined (Mng)
Error[152]  : Executable code and data must be defined in an appropriate section
Error[113]  : Symbol not previously defined (RudAilNeg)
Error[152]  : Executable code and data must be defined in an appropriate section
000000                00114                 MOVFF   Mng,RudAilNeg
Error[152]  : Executable code and data must be defined in an appropriate section
000000                00115                 RETURN
                      00116                 
Error[150]  : Labels must be defined in a code or data section when making an object file
000000                00117 PreR2E
Error[113]  : Symbol not previously defined (RudElePos)
Error[152]  : Executable code and data must be defined in an appropriate section
Error[113]  : Symbol not previously defined (Mpg)
Error[152]  : Executable code and data must be defined in an appropriate section
000000                00118                 MOVFF   RudElePos,Mpg
Error[113]  : Symbol not previously defined (RudEleNeg)
Error[152]  : Executable code and data must be defined in an appropriate section
Error[113]  : Symbol not previously defined (Mng)
Error[152]  : Executable code and data must be defined in an appropriate section
000000                00119                 MOVFF   RudEleNeg,Mng
Error[152]  : Executable code and data must be defined in an appropriate section
000000                00120                 RETURN
                      00121                 
Error[150]  : Labels must be defined in a code or data section when making an object file
000000                00122 PostR2E
Error[113]  : Symbol not previously defined (Mpg)
Error[152]  : Executable code and data must be defined in an appropriate section
Error[113]  : Symbol not previously defined (RudElePos)
Error[152]  : Executable code and data must be defined in an appropriate section
000000                00123                 MOVFF   Mpg,RudElePos
Error[113]  : Symbol not previously defined (Mng)
Error[152]  : Executable code and data must be defined in an appropriate section
Error[113]  : Symbol not previously defined (RudEleNeg)
Error[152]  : Executable code and data must be defined in an appropriate section
000000                00124                 MOVFF   Mng,RudEleNeg
Error[152]  : Executable code and data must be defined in an appropriate section
000000                00125                 RETURN
                      01565         Include <Options.asm>
                      00001 ; This file contains the Options User Interface Pre and Post functions. The 
MPASM  5.37                            UI.ASM   8-24-2010  6:19:47         PAGE 126


LOC  OBJECT CODE     LINE SOURCE TEXT
  VALUE

                      00002 ; Pre function is called before the selected user interface option is processed
                      00003 ; by the user interface routines and the Post function is called after the
                      00004 ; user interface routine returns. 
                      00005 
                      00006 ; This function will move the Temp table data (CalTable) to the 
                      00007 ; location pointed to by the DXreg.
Error[150]  : Labels must be defined in a code or data section when making an object file
000000                00008 Temp2Table
Warning[207]: Found label after column 1. (CALLF)
Error[122]  : Illegal opcode (BlkMove)
000000                00009                 CALLF   BlkMove
Error[152]  : Executable code and data must be defined in an appropriate section
000000                00010                 RETURN
                      00011                 
                      00012 ; This function will move the table data defined in DXreg to the
                      00013 ; Temp table (CalTable).
Error[150]  : Labels must be defined in a code or data section when making an object file
000000                00014 Table2Temp
Warning[207]: Found label after column 1. (MOVEC)
Error[122]  : Illegal opcode (CalTable)
000000                00015                 MOVEC   CalTable,Dst
Warning[207]: Found label after column 1. (MOVE16)
Error[122]  : Illegal opcode (DXreg)
000000                00016                 MOVE16  DXreg,Src
Error[152]  : Executable code and data must be defined in an appropriate section
000000                00017                 MOVLW   D'11'
Error[113]  : Symbol not previously defined (Cnt)
Error[152]  : Executable code and data must be defined in an appropriate section
000000                00018                 MOVWF   Cnt
Error[113]  : Symbol not previously defined (BlkMove)
Error[152]  : Executable code and data must be defined in an appropriate section
Error[152]  : Executable code and data must be defined in an appropriate section
000000                00019                 CALL    BlkMove  
                      00020                 ; setup for the move back!
Warning[207]: Found label after column 1. (MOVEC)
Error[122]  : Illegal opcode (CalTable)
                      00021                 MOVEC   CalTable,Src
Warning[207]: Found label after column 1. (MOVE16)
Error[122]  : Illegal opcode (DXreg)
                      00022                 MOVE16  DXreg,Dst
Error[152]  : Executable code and data must be defined in an appropriate section
000000                00023                 MOVLW   D'11'
Error[113]  : Symbol not previously defined (Cnt)
Error[152]  : Executable code and data must be defined in an appropriate section
000000                00024                 MOVWF   Cnt
Error[152]  : Executable code and data must be defined in an appropriate section
000000                00025                 RETURN
                      00026 
                      00027 ; This function will reset the Auto Trim values to zero if the YESNO flag is
                      00028 ; set.
Error[150]  : Labels must be defined in a code or data section when making an object file
000000                00029 ATreset
                      00030         ; Test the YESNO flag and exit if the flag is not set
MPASM  5.37                            UI.ASM   8-24-2010  6:19:47         PAGE 127


LOC  OBJECT CODE     LINE SOURCE TEXT
  VALUE

Error[113]  : Symbol not previously defined (YESNO)
Error[152]  : Executable code and data must be defined in an appropriate section
000000                00031                 MOVLB   HIGH YESNO
Error[113]  : Symbol not previously defined (YESNO)
Error[152]  : Executable code and data must be defined in an appropriate section
000000                00032                 BTFSS   YESNO,7
Error[152]  : Executable code and data must be defined in an appropriate section
000000                00033                 RETURN
                      00034         ; Here to clear the reset values
Error[113]  : Symbol not previously defined (AAT)
Error[152]  : Executable code and data must be defined in an appropriate section
000000                00035                 MOVLB   HIGH AAT
Error[113]  : Symbol not previously defined (AAT)
Error[152]  : Executable code and data must be defined in an appropriate section
000000                00036                 CLRF    AAT
Error[113]  : Symbol not previously defined (EAT)
Error[152]  : Executable code and data must be defined in an appropriate section
000000                00037                 CLRF    EAT
Error[113]  : Symbol not previously defined (RAT)
Error[152]  : Executable code and data must be defined in an appropriate section
000000                00038                 CLRF    RAT
Error[152]  : Executable code and data must be defined in an appropriate section
000000                00039                 RETURN
                      00040 
                      00041 
                      00042 ; This function will copy the current trim positions to the trim zero  variables if
                      00043 ; the YESNO flag is set.
Error[150]  : Labels must be defined in a code or data section when making an object file
000000                00044 TrimZero
                      00045         ; Test the YESNO flag and exit if the flag is not set
Error[113]  : Symbol not previously defined (YESNO)
Error[152]  : Executable code and data must be defined in an appropriate section
000000                00046                 MOVLB   HIGH YESNO
Error[113]  : Symbol not previously defined (YESNO)
Error[152]  : Executable code and data must be defined in an appropriate section
000000                00047                 BTFSS   YESNO,7
Error[152]  : Executable code and data must be defined in an appropriate section
000000                00048                 RETURN
                      00049         ; Aileron
Warning[207]: Found label after column 1. (MOVE16)
Error[122]  : Illegal opcode (TrimZeroAil)
                      00050                 MOVE16  TrimZeroAil,CEXreg
Error[113]  : Symbol not previously defined (Atrim)
Error[152]  : Executable code and data must be defined in an appropriate section
000000                00051                 MOVF    Atrim,W
Error[113]  : Symbol not previously defined (CEXreg)
Error[152]  : Executable code and data must be defined in an appropriate section
000000                00052                 ADDWF   CEXreg,F
Error[113]  : Symbol not previously defined (Atrim)
Error[152]  : Executable code and data must be defined in an appropriate section
000000                00053                 MOVF    Atrim+1,W
Error[113]  : Symbol not previously defined (CEXreg)
Error[152]  : Executable code and data must be defined in an appropriate section
MPASM  5.37                            UI.ASM   8-24-2010  6:19:47         PAGE 128


LOC  OBJECT CODE     LINE SOURCE TEXT
  VALUE

000000                00054                 ADDWFC  CEXreg+1,F
Warning[207]: Found label after column 1. (MOVE16)
Error[122]  : Illegal opcode (CEXreg)
000000                00055                 MOVE16  CEXreg,TrimZeroAil
                      00056         ; Elevator
Warning[207]: Found label after column 1. (MOVE16)
Error[122]  : Illegal opcode (TrimZeroEle)
                      00057                 MOVE16  TrimZeroEle,CEXreg
Error[113]  : Symbol not previously defined (Etrim)
Error[152]  : Executable code and data must be defined in an appropriate section
000000                00058                 MOVF    Etrim,W
Error[113]  : Symbol not previously defined (CEXreg)
Error[152]  : Executable code and data must be defined in an appropriate section
000000                00059                 ADDWF   CEXreg,F
Error[113]  : Symbol not previously defined (Etrim)
Error[152]  : Executable code and data must be defined in an appropriate section
000000                00060                 MOVF    Etrim+1,W
Error[113]  : Symbol not previously defined (CEXreg)
Error[152]  : Executable code and data must be defined in an appropriate section
000000                00061                 ADDWFC  CEXreg+1,F
Warning[207]: Found label after column 1. (MOVE16)
Error[122]  : Illegal opcode (CEXreg)
000000                00062                 MOVE16  CEXreg,TrimZeroEle
                      00063         ; Rudder
Warning[207]: Found label after column 1. (MOVE16)
Error[122]  : Illegal opcode (TrimZeroRud)
                      00064                 MOVE16  TrimZeroRud,CEXreg
Error[113]  : Symbol not previously defined (Rtrim)
Error[152]  : Executable code and data must be defined in an appropriate section
000000                00065                 MOVF    Rtrim,W
Error[113]  : Symbol not previously defined (CEXreg)
Error[152]  : Executable code and data must be defined in an appropriate section
000000                00066                 ADDWF   CEXreg,F
Error[113]  : Symbol not previously defined (Rtrim)
Error[152]  : Executable code and data must be defined in an appropriate section
000000                00067                 MOVF    Rtrim+1,W
Error[113]  : Symbol not previously defined (CEXreg)
Error[152]  : Executable code and data must be defined in an appropriate section
000000                00068                 ADDWFC  CEXreg+1,F
Warning[207]: Found label after column 1. (MOVE16)
Error[122]  : Illegal opcode (CEXreg)
000000                00069                 MOVE16  CEXreg,TrimZeroRud
Error[152]  : Executable code and data must be defined in an appropriate section
000000                00070                 RETURN
                      00071 
                      00072                 
                      00073 ; This function will clear the Trim zero variables. This function is only performed 
                      00074 ; is the YESNO flag is set.
Error[150]  : Labels must be defined in a code or data section when making an object file
000000                00075 TrimZeroClear
                      00076         ; Test the YESNO flag and exit if the flag is not set
Error[113]  : Symbol not previously defined (YESNO)
Error[152]  : Executable code and data must be defined in an appropriate section
MPASM  5.37                            UI.ASM   8-24-2010  6:19:47         PAGE 129


LOC  OBJECT CODE     LINE SOURCE TEXT
  VALUE

000000                00077                 MOVLB   HIGH YESNO
Error[113]  : Symbol not previously defined (YESNO)
Error[152]  : Executable code and data must be defined in an appropriate section
000000                00078                 BTFSS   YESNO,7
Error[152]  : Executable code and data must be defined in an appropriate section
000000                00079                 RETURN
                      00080         ; Clear the Trim Zero variables
Error[113]  : Symbol not previously defined (TrimZeroAil)
Error[152]  : Executable code and data must be defined in an appropriate section
000000                00081                 MOVLB   HIGH TrimZeroAil
Error[113]  : Symbol not previously defined (TrimZeroAil)
Error[152]  : Executable code and data must be defined in an appropriate section
000000                00082                 CLRF    TrimZeroAil
Error[113]  : Symbol not previously defined (TrimZeroAil)
Error[152]  : Executable code and data must be defined in an appropriate section
000000                00083                 CLRF    TrimZeroAil+1
Error[113]  : Symbol not previously defined (TrimZeroEle)
Error[152]  : Executable code and data must be defined in an appropriate section
000000                00084                 CLRF    TrimZeroEle
Error[113]  : Symbol not previously defined (TrimZeroEle)
Error[152]  : Executable code and data must be defined in an appropriate section
000000                00085                 CLRF    TrimZeroEle+1
Error[113]  : Symbol not previously defined (TrimZeroRud)
Error[152]  : Executable code and data must be defined in an appropriate section
000000                00086                 CLRF    TrimZeroRud
Error[113]  : Symbol not previously defined (TrimZeroRud)
Error[152]  : Executable code and data must be defined in an appropriate section
000000                00087                 CLRF    TrimZeroRud+1
Error[152]  : Executable code and data must be defined in an appropriate section
000000                00088                 RETURN
                      00089                 
                      00090 ; This function will set the variable limits for the alternate aircraft function. This 
                      00091 ; limit is NumAircraft.
Error[150]  : Labels must be defined in a code or data section when making an object file
000000                00092 SetAftRange
Error[113]  : Symbol not previously defined (MinByte)
Error[152]  : Executable code and data must be defined in an appropriate section
000000                00093                 MOVLB   HIGH MinByte
Error[113]  : Symbol not previously defined (MinByte)
Error[152]  : Executable code and data must be defined in an appropriate section
000000                00094                 CLRF    MinByte 
Error[113]  : Symbol not previously defined (MinByte)
Error[152]  : Executable code and data must be defined in an appropriate section
000000                00095                 INCF    MinByte
Error[113]  : Symbol not previously defined (NumAircraft)
Error[152]  : Executable code and data must be defined in an appropriate section
000000                00096                 MOVLW   NumAircraft
Error[113]  : Symbol not previously defined (MaxByte)
Error[152]  : Executable code and data must be defined in an appropriate section
000000                00097                 MOVLB   HIGH MaxByte
Error[113]  : Symbol not previously defined (MaxByte)
Error[152]  : Executable code and data must be defined in an appropriate section
000000                00098                 MOVWF   MaxByte 
MPASM  5.37                            UI.ASM   8-24-2010  6:19:47         PAGE 130


LOC  OBJECT CODE     LINE SOURCE TEXT
  VALUE

Error[152]  : Executable code and data must be defined in an appropriate section
000000                00099                 RETURN
                      00100 
                      00101 ; This function will copy the current aircraft data into the select aircraft number. The
                      00102 ; selected aircraft number is saved in mto. If mto is set to zero then nothing is done.
Error[150]  : Labels must be defined in a code or data section when making an object file
000000                00103 CopyAFT
                      00104         ; Do the copy operation if Mto is > 0
Error[113]  : Symbol not previously defined (Mto)
Error[152]  : Executable code and data must be defined in an appropriate section
000000                00105                 MOVLB   HIGH Mto
Error[113]  : Symbol not previously defined (Mto)
Error[152]  : Executable code and data must be defined in an appropriate section
000000                00106                 MOVF    Mto,W
Error[113]  : Symbol not previously defined (Mto)
Error[152]  : Executable code and data must be defined in an appropriate section
000000                00107                 TSTFSZ  Mto
Error[151]  : Operand contains unresolvable labels or is too complex
Error[152]  : Executable code and data must be defined in an appropriate section
Error[152]  : Executable code and data must be defined in an appropriate section
000000                00108                 GOTO    CopyAFTgo  
Error[152]  : Executable code and data must be defined in an appropriate section
000000                00109                 RETURN
                      00110         ; Copy the aircraft number to a temp variable then move Mto 
                      00111         ; to aircraft number and call SaveAircraft...
Error[150]  : Labels must be defined in a code or data section when making an object file
000000                00112 CopyAFTgo
Error[113]  : Symbol not previously defined (Aircraft)
Error[152]  : Executable code and data must be defined in an appropriate section
000000                00113                 MOVLB   HIGH Aircraft
Error[113]  : Symbol not previously defined (Aircraft)
Error[152]  : Executable code and data must be defined in an appropriate section
Error[113]  : Symbol not previously defined (Areg)
Error[152]  : Executable code and data must be defined in an appropriate section
000000                00114                 MOVFF   Aircraft,Areg
Error[113]  : Symbol not previously defined (Aircraft)
Error[152]  : Executable code and data must be defined in an appropriate section
000000                00115                 MOVWF   Aircraft
Error[113]  : Symbol not previously defined (Mto)
Error[152]  : Executable code and data must be defined in an appropriate section
000000                00116                 MOVLB   HIGH Mto
Error[113]  : Symbol not previously defined (Areg)
Error[152]  : Executable code and data must be defined in an appropriate section
Error[113]  : Symbol not previously defined (Mto)
Error[152]  : Executable code and data must be defined in an appropriate section
000000                00117                 MOVFF   Areg,Mto
Error[113]  : Symbol not previously defined (SaveAircraft)
Error[152]  : Executable code and data must be defined in an appropriate section
Error[152]  : Executable code and data must be defined in an appropriate section
000000                00118                 CALL    SaveAircraft
Error[113]  : Symbol not previously defined (Mto)
Error[152]  : Executable code and data must be defined in an appropriate section
000000                00119                 MOVLB   HIGH Mto
MPASM  5.37                            UI.ASM   8-24-2010  6:19:47         PAGE 131


LOC  OBJECT CODE     LINE SOURCE TEXT
  VALUE

Error[113]  : Symbol not previously defined (Mto)
Error[152]  : Executable code and data must be defined in an appropriate section
Error[113]  : Symbol not previously defined (Areg)
Error[152]  : Executable code and data must be defined in an appropriate section
000000                00120                 MOVFF   Mto,Areg
Error[113]  : Symbol not previously defined (Aircraft)
Error[152]  : Executable code and data must be defined in an appropriate section
000000                00121                 MOVLB   HIGH Aircraft
Error[113]  : Symbol not previously defined (Areg)
Error[152]  : Executable code and data must be defined in an appropriate section
Error[113]  : Symbol not previously defined (Aircraft)
Error[152]  : Executable code and data must be defined in an appropriate section
000000                00122                 MOVFF   Areg,Aircraft
Error[152]  : Executable code and data must be defined in an appropriate section
000000                00123                 RETURN
                      00124                 
                      00125 ; This function will copy the Auto Trim values to the Trim Zero variables and then
                      00126 ; clear the Auto Trim values. This function is only performed is the YESNO flag is
                      00127 ; set.
Error[150]  : Labels must be defined in a code or data section when making an object file
000000                00128 AutoTrim2Zero
                      00129         ; Test the YESNO flag and exit if the flag is not set
Error[113]  : Symbol not previously defined (YESNO)
Error[152]  : Executable code and data must be defined in an appropriate section
000000                00130                 MOVLB   HIGH YESNO
Error[113]  : Symbol not previously defined (YESNO)
Error[152]  : Executable code and data must be defined in an appropriate section
000000                00131                 BTFSS   YESNO,7
Error[152]  : Executable code and data must be defined in an appropriate section
000000                00132                 RETURN
                      00133         ; Aileron channel
Error[113]  : Symbol not previously defined (AAT)
Error[152]  : Executable code and data must be defined in an appropriate section
000000                00134                 MOVLB   HIGH AAT
Error[113]  : Symbol not previously defined (AAT)
Error[152]  : Executable code and data must be defined in an appropriate section
000000                00135                 MOVF    AAT,W
Error[113]  : Symbol not previously defined (AAT)
Error[152]  : Executable code and data must be defined in an appropriate section
000000                00136                 CLRF    AAT
Error[113]  : Symbol not previously defined (APT)
Error[152]  : Executable code and data must be defined in an appropriate section
Error[113]  : Symbol not previously defined (Areg)
Error[152]  : Executable code and data must be defined in an appropriate section
000000                00137                 MOVFF   APT,Areg
Error[113]  : Symbol not previously defined (AXreg)
Error[152]  : Executable code and data must be defined in an appropriate section
000000                00138                 MOVLB   HIGH AXreg
Error[113]  : Symbol not previously defined (AXreg)
Error[152]  : Executable code and data must be defined in an appropriate section
000000                00139                 MOVWF   AXreg
Error[113]  : Symbol not previously defined (AXreg)
Error[152]  : Executable code and data must be defined in an appropriate section
MPASM  5.37                            UI.ASM   8-24-2010  6:19:47         PAGE 132


LOC  OBJECT CODE     LINE SOURCE TEXT
  VALUE

000000                00140                 CLRF    AXreg+1
Error[113]  : Symbol not previously defined (WREG)
Error[152]  : Executable code and data must be defined in an appropriate section
000000                00141                 BTFSC   WREG,7
Error[113]  : Symbol not previously defined (AXreg)
Error[152]  : Executable code and data must be defined in an appropriate section
000000                00142                 SETF    AXreg+1
Error[113]  : Symbol not previously defined (AXreg)
Error[152]  : Executable code and data must be defined in an appropriate section
000000                00143                 RLCF    AXreg                   ; Multiply by 2
Error[113]  : Symbol not previously defined (AXreg)
Error[152]  : Executable code and data must be defined in an appropriate section
000000                00144                 RLCF    AXreg+1         
Warning[207]: Found label after column 1. (MOVEC)
Error[122]  : Illegal opcode (D)
000000                00145                 MOVEC   D'100',BXreg
Error[113]  : Symbol not previously defined (Mult1616)
Error[152]  : Executable code and data must be defined in an appropriate section
Error[152]  : Executable code and data must be defined in an appropriate section
000000                00146                 CALL    Mult1616
Error[113]  : Symbol not previously defined (Areg)
Error[152]  : Executable code and data must be defined in an appropriate section
Error[113]  : Symbol not previously defined (DEXreg)
Error[152]  : Executable code and data must be defined in an appropriate section
000000                00147                 MOVFF   Areg,DEXreg
Error[113]  : Symbol not previously defined (DEXreg)
Error[152]  : Executable code and data must be defined in an appropriate section
000000                00148                 CLRF    DEXreg+1
Error[113]  : Symbol not previously defined (Divide2416)
Error[152]  : Executable code and data must be defined in an appropriate section
Error[152]  : Executable code and data must be defined in an appropriate section
000000                00149                 CALL    Divide2416
Error[113]  : Symbol not previously defined (CEXreg)
Error[152]  : Executable code and data must be defined in an appropriate section
000000                00150                 MOVF    CEXreg,W
Error[113]  : Symbol not previously defined (TrimZeroAil)
Error[152]  : Executable code and data must be defined in an appropriate section
000000                00151                 MOVLB   HIGH TrimZeroAil
Error[113]  : Symbol not previously defined (TrimZeroAil)
Error[152]  : Executable code and data must be defined in an appropriate section
000000                00152                 ADDWF   TrimZeroAil,F
Error[113]  : Symbol not previously defined (CEXreg)
Error[152]  : Executable code and data must be defined in an appropriate section
000000                00153                 MOVLB   HIGH CEXreg
Error[113]  : Symbol not previously defined (CEXreg)
Error[152]  : Executable code and data must be defined in an appropriate section
000000                00154                 MOVF    CEXreg+1,W
Error[113]  : Symbol not previously defined (TrimZeroAil)
Error[152]  : Executable code and data must be defined in an appropriate section
000000                00155                 MOVLB   HIGH TrimZeroAil
Error[113]  : Symbol not previously defined (TrimZeroAil)
Error[152]  : Executable code and data must be defined in an appropriate section
000000                00156                 ADDWFC  TrimZeroAil+1,F
MPASM  5.37                            UI.ASM   8-24-2010  6:19:47         PAGE 133


LOC  OBJECT CODE     LINE SOURCE TEXT
  VALUE

                      00157         ; Elevator channel
Error[113]  : Symbol not previously defined (EAT)
Error[152]  : Executable code and data must be defined in an appropriate section
000000                00158                 MOVLB   HIGH EAT
Error[113]  : Symbol not previously defined (EAT)
Error[152]  : Executable code and data must be defined in an appropriate section
000000                00159                 MOVF    EAT,W
Error[113]  : Symbol not previously defined (EAT)
Error[152]  : Executable code and data must be defined in an appropriate section
000000                00160                 CLRF    EAT
Error[113]  : Symbol not previously defined (EPT)
Error[152]  : Executable code and data must be defined in an appropriate section
Error[113]  : Symbol not previously defined (Areg)
Error[152]  : Executable code and data must be defined in an appropriate section
000000                00161                 MOVFF   EPT,Areg
Error[113]  : Symbol not previously defined (AXreg)
Error[152]  : Executable code and data must be defined in an appropriate section
000000                00162                 MOVLB   HIGH AXreg
Error[113]  : Symbol not previously defined (AXreg)
Error[152]  : Executable code and data must be defined in an appropriate section
000000                00163                 MOVWF   AXreg
Error[113]  : Symbol not previously defined (AXreg)
Error[152]  : Executable code and data must be defined in an appropriate section
000000                00164                 CLRF    AXreg+1
Error[113]  : Symbol not previously defined (WREG)
Error[152]  : Executable code and data must be defined in an appropriate section
000000                00165                 BTFSC   WREG,7
Error[113]  : Symbol not previously defined (AXreg)
Error[152]  : Executable code and data must be defined in an appropriate section
000000                00166                 SETF    AXreg+1
Error[113]  : Symbol not previously defined (AXreg)
Error[152]  : Executable code and data must be defined in an appropriate section
000000                00167                 RLCF    AXreg                   ; Multiply by 2
Error[113]  : Symbol not previously defined (AXreg)
Error[152]  : Executable code and data must be defined in an appropriate section
000000                00168                 RLCF    AXreg+1
Warning[207]: Found label after column 1. (MOVEC)
Error[122]  : Illegal opcode (D)
000000                00169                 MOVEC   D'100',BXreg
Warning[207]: Found label after column 1. (CALLF)
Error[122]  : Illegal opcode (Mult1616)
000000                00170                 CALLF   Mult1616
Error[113]  : Symbol not previously defined (Areg)
Error[152]  : Executable code and data must be defined in an appropriate section
Error[113]  : Symbol not previously defined (DEXreg)
Error[152]  : Executable code and data must be defined in an appropriate section
000000                00171                 MOVFF   Areg,DEXreg
Error[113]  : Symbol not previously defined (DEXreg)
Error[152]  : Executable code and data must be defined in an appropriate section
000000                00172                 CLRF    DEXreg+1
Error[113]  : Symbol not previously defined (Divide2416)
Error[152]  : Executable code and data must be defined in an appropriate section
Error[152]  : Executable code and data must be defined in an appropriate section
MPASM  5.37                            UI.ASM   8-24-2010  6:19:47         PAGE 134


LOC  OBJECT CODE     LINE SOURCE TEXT
  VALUE

000000                00173                 CALL    Divide2416
Error[113]  : Symbol not previously defined (CEXreg)
Error[152]  : Executable code and data must be defined in an appropriate section
000000                00174                 MOVF    CEXreg,W
Error[113]  : Symbol not previously defined (TrimZeroEle)
Error[152]  : Executable code and data must be defined in an appropriate section
000000                00175                 MOVLB   HIGH TrimZeroEle
Error[113]  : Symbol not previously defined (TrimZeroEle)
Error[152]  : Executable code and data must be defined in an appropriate section
000000                00176                 ADDWF   TrimZeroEle,F
Error[113]  : Symbol not previously defined (CEXreg)
Error[152]  : Executable code and data must be defined in an appropriate section
000000                00177                 MOVLB   HIGH CEXreg
Error[113]  : Symbol not previously defined (CEXreg)
Error[152]  : Executable code and data must be defined in an appropriate section
000000                00178                 MOVF    CEXreg+1,W
Error[113]  : Symbol not previously defined (TrimZeroEle)
Error[152]  : Executable code and data must be defined in an appropriate section
000000                00179                 MOVLB   HIGH TrimZeroEle
Error[113]  : Symbol not previously defined (TrimZeroEle)
Error[152]  : Executable code and data must be defined in an appropriate section
000000                00180                 ADDWFC  TrimZeroEle+1,F
                      00181         ; Rudder channel
Error[113]  : Symbol not previously defined (RAT)
Error[152]  : Executable code and data must be defined in an appropriate section
000000                00182                 MOVLB   HIGH RAT
Error[113]  : Symbol not previously defined (RAT)
Error[152]  : Executable code and data must be defined in an appropriate section
000000                00183                 MOVF    RAT,W
Error[113]  : Symbol not previously defined (RAT)
Error[152]  : Executable code and data must be defined in an appropriate section
000000                00184                 CLRF    RAT
Error[113]  : Symbol not previously defined (RPT)
Error[152]  : Executable code and data must be defined in an appropriate section
Error[113]  : Symbol not previously defined (Areg)
Error[152]  : Executable code and data must be defined in an appropriate section
000000                00185                 MOVFF   RPT,Areg
Error[113]  : Symbol not previously defined (AXreg)
Error[152]  : Executable code and data must be defined in an appropriate section
000000                00186                 MOVLB   HIGH AXreg
Error[113]  : Symbol not previously defined (AXreg)
Error[152]  : Executable code and data must be defined in an appropriate section
000000                00187                 MOVWF   AXreg
Error[113]  : Symbol not previously defined (AXreg)
Error[152]  : Executable code and data must be defined in an appropriate section
000000                00188                 CLRF    AXreg+1
Error[113]  : Symbol not previously defined (WREG)
Error[152]  : Executable code and data must be defined in an appropriate section
000000                00189                 BTFSC   WREG,7
Error[113]  : Symbol not previously defined (AXreg)
Error[152]  : Executable code and data must be defined in an appropriate section
000000                00190                 SETF    AXreg+1
Error[113]  : Symbol not previously defined (AXreg)
MPASM  5.37                            UI.ASM   8-24-2010  6:19:47         PAGE 135


LOC  OBJECT CODE     LINE SOURCE TEXT
  VALUE

Error[152]  : Executable code and data must be defined in an appropriate section
000000                00191                 RLCF    AXreg                   ; Multiply by 2
Error[113]  : Symbol not previously defined (AXreg)
Error[152]  : Executable code and data must be defined in an appropriate section
000000                00192                 RLCF    AXreg+1
Warning[207]: Found label after column 1. (MOVEC)
Error[122]  : Illegal opcode (D)
000000                00193                 MOVEC   D'100',BXreg
Error[113]  : Symbol not previously defined (Mult1616)
Error[152]  : Executable code and data must be defined in an appropriate section
Error[152]  : Executable code and data must be defined in an appropriate section
000000                00194                 CALL    Mult1616
Error[113]  : Symbol not previously defined (Areg)
Error[152]  : Executable code and data must be defined in an appropriate section
Error[113]  : Symbol not previously defined (DEXreg)
Error[152]  : Executable code and data must be defined in an appropriate section
000000                00195                 MOVFF   Areg,DEXreg
Error[113]  : Symbol not previously defined (DEXreg)
Error[152]  : Executable code and data must be defined in an appropriate section
000000                00196                 CLRF    DEXreg+1
Error[113]  : Symbol not previously defined (Divide2416)
Error[152]  : Executable code and data must be defined in an appropriate section
Error[152]  : Executable code and data must be defined in an appropriate section
000000                00197                 CALL    Divide2416
Error[113]  : Symbol not previously defined (CEXreg)
Error[152]  : Executable code and data must be defined in an appropriate section
000000                00198                 MOVF    CEXreg,W
Error[113]  : Symbol not previously defined (TrimZeroRud)
Error[152]  : Executable code and data must be defined in an appropriate section
000000                00199                 MOVLB   HIGH TrimZeroRud
Error[113]  : Symbol not previously defined (TrimZeroRud)
Error[152]  : Executable code and data must be defined in an appropriate section
000000                00200                 ADDWF   TrimZeroRud,F
Error[113]  : Symbol not previously defined (CEXreg)
Error[152]  : Executable code and data must be defined in an appropriate section
000000                00201                 MOVLB   HIGH CEXreg
Error[113]  : Symbol not previously defined (CEXreg)
Error[152]  : Executable code and data must be defined in an appropriate section
000000                00202                 MOVF    CEXreg+1,W
Error[113]  : Symbol not previously defined (TrimZeroRud)
Error[152]  : Executable code and data must be defined in an appropriate section
000000                00203                 MOVLB   HIGH TrimZeroRud
Error[113]  : Symbol not previously defined (TrimZeroRud)
Error[152]  : Executable code and data must be defined in an appropriate section
000000                00204                 ADDWFC  TrimZeroRud+1,F
Error[152]  : Executable code and data must be defined in an appropriate section
000000                00205                 RETURN
                      00206 
                      00207 ; This function will copy the default aircraft paraameters into memory. This function 
                      00208 ; is only performed is the YESNO flag is set.
Error[150]  : Labels must be defined in a code or data section when making an object file
000000                00209 SetDefault
                      00210         ; Test the YESNO flag and exit if the flag is not set
MPASM  5.37                            UI.ASM   8-24-2010  6:19:47         PAGE 136


LOC  OBJECT CODE     LINE SOURCE TEXT
  VALUE

Error[113]  : Symbol not previously defined (YESNO)
Error[152]  : Executable code and data must be defined in an appropriate section
000000                00211                 MOVLB   HIGH YESNO
Error[113]  : Symbol not previously defined (YESNO)
Error[152]  : Executable code and data must be defined in an appropriate section
000000                00212                 BTFSS   YESNO,7
Error[152]  : Executable code and data must be defined in an appropriate section
000000                00213                 RETURN
                      00214         ; Set the aircraft defaults
Error[113]  : Symbol not previously defined (LoadAircraftDefaults)
Error[152]  : Executable code and data must be defined in an appropriate section
Error[152]  : Executable code and data must be defined in an appropriate section
000000                00215                 CALL    LoadAircraftDefaults
Error[152]  : Executable code and data must be defined in an appropriate section
000000                00216                 RETURN
                      00217                 
                      01566         Include <System.asm>
                      00001 ; This file contains the System Options User Interface Pre and Post functions. The 
                      00002 ; Pre function is called before the selected user interface option is processed
                      00003 ; by the user interface routines and the Post function is called after the
                      00004 ; user interface routine returns. 
                      00005 
Error[150]  : Labels must be defined in a code or data section when making an object file
000000                00006 PostChan
Error[113]  : Symbol not previously defined (MaxChannels)
Error[152]  : Executable code and data must be defined in an appropriate section
000000                00007                 MOVLB   HIGH MaxChannels
Error[113]  : Symbol not previously defined (C)
Error[113]  : Symbol not previously defined (ALUSTA)
Error[113]  : Symbol not previously defined (A)
Error[152]  : Executable code and data must be defined in an appropriate section
000000                00008                 BCF     ALUSTA,C,A
Error[113]  : Symbol not previously defined (MaxChannels)
Error[152]  : Executable code and data must be defined in an appropriate section
000000                00009                 RLCF    MaxChannels
Error[152]  : Executable code and data must be defined in an appropriate section
000000                00010                 RETURN
                      00011                 
Error[150]  : Labels must be defined in a code or data section when making an object file
000000                00012 PreChan
Error[113]  : Symbol not previously defined (MaxChannels)
Error[152]  : Executable code and data must be defined in an appropriate section
000000                00013                 MOVLB   HIGH MaxChannels
Error[113]  : Symbol not previously defined (C)
Error[113]  : Symbol not previously defined (ALUSTA)
Error[113]  : Symbol not previously defined (A)
Error[152]  : Executable code and data must be defined in an appropriate section
000000                00014                 BCF     ALUSTA,C,A
Error[113]  : Symbol not previously defined (MaxChannels)
Error[152]  : Executable code and data must be defined in an appropriate section
000000                00015                 RRCF    MaxChannels
Error[152]  : Executable code and data must be defined in an appropriate section
000000                00016                 RETURN
MPASM  5.37                            UI.ASM   8-24-2010  6:19:47         PAGE 137


LOC  OBJECT CODE     LINE SOURCE TEXT
  VALUE

                      00017 
                      00018 ; This function will enable the FMS flight simulator mode if the FMSflag flag is set
Error[150]  : Labels must be defined in a code or data section when making an object file
000000                00019 FMSenable
                      00020         ; Test the FMS flags and exit if all the flags is not set
Error[113]  : Symbol not previously defined (FMSflag)
Error[152]  : Executable code and data must be defined in an appropriate section
000000                00021                 MOVLB   HIGH FMSflag
Error[113]  : Symbol not previously defined (FMSflag)
Error[152]  : Executable code and data must be defined in an appropriate section
000000                00022                 BTFSC   FMSflag,7
Error[151]  : Operand contains unresolvable labels or is too complex
Error[152]  : Executable code and data must be defined in an appropriate section
Error[152]  : Executable code and data must be defined in an appropriate section
000000                00023                 GOTO    FMSenable1
Error[113]  : Symbol not previously defined (FMSflagU1)
Error[152]  : Executable code and data must be defined in an appropriate section
000000                00024                 MOVLB   HIGH FMSflagU1
Error[113]  : Symbol not previously defined (FMSflagU1)
Error[152]  : Executable code and data must be defined in an appropriate section
000000                00025                 BTFSS   FMSflagU1,7
Error[152]  : Executable code and data must be defined in an appropriate section
000000                00026                 RETURN
                      00027         ; Init the FMS mode uart
Error[150]  : Labels must be defined in a code or data section when making an object file
000000                00028 FMSenable1
Error[113]  : Symbol not previously defined (FMSinit)
Error[152]  : Executable code and data must be defined in an appropriate section
Error[152]  : Executable code and data must be defined in an appropriate section
000000                00029                 CALL    FMSinit
Error[152]  : Executable code and data must be defined in an appropriate section
000000                00030                 RETURN
                      00031 
                      00032 
                      00033 ; This function is used to calibrate the transmitter voltage monitoring function.
Error[150]  : Labels must be defined in a code or data section when making an object file
000000                00034 TXvoltSet
                      00035         ; First place the ADC channel in Ftemp and the gain
                      00036         ; value, VmonG, in BXreg
Warning[207]: Found label after column 1. (MOVE)
Error[122]  : Illegal opcode (VmonG)
                      00037                 MOVE    VmonG,BXreg
Error[113]  : Symbol not previously defined (ADCref)
Error[152]  : Executable code and data must be defined in an appropriate section
000000                00038                 MOVLW   ADCref      
Error[113]  : Symbol not previously defined (Ftemp)
Error[152]  : Executable code and data must be defined in an appropriate section
000000                00039                 MOVLB   HIGH Ftemp
Error[113]  : Symbol not previously defined (Ftemp)
Error[152]  : Executable code and data must be defined in an appropriate section
000000                00040                 MOVWF   Ftemp
Error[151]  : Operand contains unresolvable labels or is too complex
Error[152]  : Executable code and data must be defined in an appropriate section
MPASM  5.37                            UI.ASM   8-24-2010  6:19:47         PAGE 138


LOC  OBJECT CODE     LINE SOURCE TEXT
  VALUE

Error[152]  : Executable code and data must be defined in an appropriate section
000000                00041                 CALL    CalVoltMeter
Warning[207]: Found label after column 1. (MOVE)
Error[122]  : Illegal opcode (BXreg)
000000                00042                 MOVE    BXreg,VmonG
Error[152]  : Executable code and data must be defined in an appropriate section
000000                00043                 RETURN
                      00044 
                      00045 ; This function is used to calibrate the receiver voltage monitoring function.
Error[150]  : Labels must be defined in a code or data section when making an object file
000000                00046 RXvoltSet             
                      00047         ; First place the ADC channel in Ftemp and the gain
                      00048         ; value, VRmonG, in BXreg
Warning[207]: Found label after column 1. (MOVE)
Error[122]  : Illegal opcode (VRmonG)
                      00049                 MOVE    VRmonG,BXreg
Error[152]  : Executable code and data must be defined in an appropriate section
000000                00050                 MOVLW   D'13'         
Error[113]  : Symbol not previously defined (Ftemp)
Error[152]  : Executable code and data must be defined in an appropriate section
000000                00051                 MOVLB   HIGH Ftemp
Error[113]  : Symbol not previously defined (Ftemp)
Error[152]  : Executable code and data must be defined in an appropriate section
000000                00052                 MOVWF   Ftemp
Error[151]  : Operand contains unresolvable labels or is too complex
Error[152]  : Executable code and data must be defined in an appropriate section
Error[152]  : Executable code and data must be defined in an appropriate section
000000                00053                 CALL    CalVoltMeter
Warning[207]: Found label after column 1. (MOVE)
Error[122]  : Illegal opcode (BXreg)
000000                00054                 MOVE    BXreg,VRmonG
Error[152]  : Executable code and data must be defined in an appropriate section
000000                00055                 RETURN
                      00056 
                      00057 ; This function is used to reset the battery timer value. This value is only
                      00058 ; cleared if the YESNO flag is set.
Error[150]  : Labels must be defined in a code or data section when making an object file
000000                00059 ResetBatTimer
                      00060         ; Test the YESNO flag and exit if the flag is not set
Error[113]  : Symbol not previously defined (YESNO)
Error[152]  : Executable code and data must be defined in an appropriate section
000000                00061                 MOVLB   HIGH YESNO
Error[113]  : Symbol not previously defined (YESNO)
Error[152]  : Executable code and data must be defined in an appropriate section
000000                00062                 BTFSS   YESNO,7
Error[152]  : Executable code and data must be defined in an appropriate section
000000                00063                 RETURN
                      00064         ; Clear the battery timer value
Error[113]  : Symbol not previously defined (BatteryTimer)
Error[152]  : Executable code and data must be defined in an appropriate section
000000                00065                 MOVLB   HIGH BatteryTimer
Error[113]  : Symbol not previously defined (BatteryTimer)
Error[152]  : Executable code and data must be defined in an appropriate section
MPASM  5.37                            UI.ASM   8-24-2010  6:19:47         PAGE 139


LOC  OBJECT CODE     LINE SOURCE TEXT
  VALUE

000000                00066                 CLRF    BatteryTimer
Error[113]  : Symbol not previously defined (BatteryTimer)
Error[152]  : Executable code and data must be defined in an appropriate section
000000                00067                 CLRF    BatteryTimer+1
                      00068         ; Set flag to store the timer to EEPROM
Warning[207]: Found label after column 1. (MOVLR)
Error[122]  : Illegal opcode (HIGH)
                      00069                 MOVLR   HIGH BTflag
Error[113]  : Symbol not previously defined (BTflag)
Error[152]  : Executable code and data must be defined in an appropriate section
000000                00070                 SETF    BTflag
Error[152]  : Executable code and data must be defined in an appropriate section
000000                00071                 RETURN
                      00072 
                      00073 ; Format primary SPROM
Error[150]  : Labels must be defined in a code or data section when making an object file
000000                00074 FmtFlsh
Error[113]  : Symbol not previously defined (FormatFlash)
Error[152]  : Executable code and data must be defined in an appropriate section
Error[152]  : Executable code and data must be defined in an appropriate section
000000                00075                 CALL    FormatFlash
Warning[207]: Found label after column 1. (ShowLine2)
Error[150]  : Labels must be defined in a code or data section when making an object file
000000                00076                 ShowLine2
Error[152]  : Executable code and data must be defined in an appropriate section
000000                00077                 RETURN
                      00078 
                      00079 ; Define a channels gain parameters to convert raw ADC counts to normalized units
                      00080 ; for a trim channel. Trim channels go from -1000 to 1000
                      00081 ; Steps:
                      00082 ;       1.) Read RT/DWN position
                      00083 ;       2.) Read LT/UP position
                      00084 ;       Ct = (LT/UP + RT/DWN)/2
                      00085 ;       GH = 1000 * 256/(LT/UP - RT/DWN)/2)
                      00086 ; Results placed in the following reg during the calculations then moved to
                      00087 ; final location:
                      00088 ;       Gh,Ct
                      00089 ; On call the parameters needed are packed in the DXreg. The MSB contains
                      00090 ; the ADC channel number and the LSB contains the low 8 bit of the location
                      00091 ; address for the results. Its assumed that are destinations are in the
                      00092 ; same page.
                      00093 ; DXreg = (ADC channel):(low byte address of Destination)
Error[150]  : Labels must be defined in a code or data section when making an object file
000000                00094 JStrimsChan
                      00095         ; Load the Dst register and the ADC channel
Error[113]  : Symbol not previously defined (DXreg)
Error[152]  : Executable code and data must be defined in an appropriate section
000000                00096                 MOVLB   HIGH DXreg
Error[113]  : Symbol not previously defined (DXreg)
Error[152]  : Executable code and data must be defined in an appropriate section
000000                00097                 MOVF    DXreg,W
Error[113]  : Symbol not previously defined (Dst)
Error[152]  : Executable code and data must be defined in an appropriate section
MPASM  5.37                            UI.ASM   8-24-2010  6:19:47         PAGE 140


LOC  OBJECT CODE     LINE SOURCE TEXT
  VALUE

000000                00098                 MOVWF   Dst
Error[113]  : Symbol not previously defined (AHG)
Error[152]  : Executable code and data must be defined in an appropriate section
000000                00099                 MOVLW   HIGH (AHG)
Error[113]  : Symbol not previously defined (Dst)
Error[152]  : Executable code and data must be defined in an appropriate section
000000                00100                 MOVWF   Dst+1
Error[113]  : Symbol not previously defined (DXreg)
Error[152]  : Executable code and data must be defined in an appropriate section
000000                00101                 MOVF    DXreg+1,W
                      00102         ; Save channel in Areg
Error[113]  : Symbol not previously defined (Atemp)
Error[152]  : Executable code and data must be defined in an appropriate section
000000                00103                 MOVLB   HIGH Atemp
Error[113]  : Symbol not previously defined (Atemp)
Error[152]  : Executable code and data must be defined in an appropriate section
000000                00104                 MOVWF   Atemp
                      00105         ; Read Vbat
Error[113]  : Symbol not previously defined (ADCref)
Error[152]  : Executable code and data must be defined in an appropriate section
000000                00106                 MOVLW   ADCref
Warning[207]: Found label after column 1. (CALLFW)
Error[122]  : Illegal opcode (ReadADC256)
000000                00107                 CALLFW  ReadADC256
Error[113]  : Symbol not previously defined (ADCsum)
Error[152]  : Executable code and data must be defined in an appropriate section
Error[113]  : Symbol not previously defined (Vbat)
Error[152]  : Executable code and data must be defined in an appropriate section
000000                00108                 MOVFF   ADCsum+1,Vbat
Error[113]  : Symbol not previously defined (ADCsum)
Error[152]  : Executable code and data must be defined in an appropriate section
Error[113]  : Symbol not previously defined (Vbat)
Error[152]  : Executable code and data must be defined in an appropriate section
000000                00109                 MOVFF   ADCsum+2,Vbat+1
                      00110         ; Get the RT/DWN position
Warning[207]: Found label after column 1. (CALLFL)
Error[122]  : Illegal opcode (LCDsendCMD)
                      00111                 CALLFL  LCDsendCMD,LINE2
Warning[207]: Found label after column 1. (PrintMess)
Error[122]  : Illegal opcode (JCALMES15)
                      00112                 PrintMess JCALMES15
Error[113]  : Symbol not previously defined (Option)
Error[152]  : Executable code and data must be defined in an appropriate section
Error[152]  : Executable code and data must be defined in an appropriate section
000000                00113                 CALL    Option
Error[113]  : Symbol not previously defined (C)
Error[113]  : Symbol not previously defined (ALUSTA)
Error[113]  : Symbol not previously defined (A)
Error[152]  : Executable code and data must be defined in an appropriate section
000000                00114                 BTFSS   ALUSTA,C,A
Error[150]  : Labels must be defined in a code or data section when making an object file
Error[126]  : Argument out of range (FFFA not between 0000 and FFFF)
Error[152]  : Executable code and data must be defined in an appropriate section
MPASM  5.37                            UI.ASM   8-24-2010  6:19:47         PAGE 141


LOC  OBJECT CODE     LINE SOURCE TEXT
  VALUE

Error[152]  : Executable code and data must be defined in an appropriate section
000000                00115                 GOTO    $-6
Error[113]  : Symbol not previously defined (Atemp)
Error[152]  : Executable code and data must be defined in an appropriate section
000000                00116                 MOVLB   HIGH Atemp
Error[113]  : Symbol not previously defined (Atemp)
Error[152]  : Executable code and data must be defined in an appropriate section
000000                00117                 MOVF    Atemp,W
Warning[207]: Found label after column 1. (CALLFW)
Error[122]  : Illegal opcode (ReadADC256)
000000                00118                 CALLFW  ReadADC256
Error[113]  : Symbol not previously defined (ADCsum)
Error[152]  : Executable code and data must be defined in an appropriate section
Error[113]  : Symbol not previously defined (Ct)
Error[152]  : Executable code and data must be defined in an appropriate section
000000                00119                 MOVFF   ADCsum+1,Ct
Error[113]  : Symbol not previously defined (ADCsum)
Error[152]  : Executable code and data must be defined in an appropriate section
Error[113]  : Symbol not previously defined (Ct)
Error[152]  : Executable code and data must be defined in an appropriate section
000000                00120                 MOVFF   ADCsum+2,Ct+1
Error[113]  : Symbol not previously defined (ADCsum)
Error[152]  : Executable code and data must be defined in an appropriate section
Error[113]  : Symbol not previously defined (Gl)
Error[152]  : Executable code and data must be defined in an appropriate section
000000                00121                 MOVFF   ADCsum+1,Gl
Error[113]  : Symbol not previously defined (ADCsum)
Error[152]  : Executable code and data must be defined in an appropriate section
Error[113]  : Symbol not previously defined (Gl)
Error[152]  : Executable code and data must be defined in an appropriate section
000000                00122                 MOVFF   ADCsum+2,Gl+1
Error[152]  : Executable code and data must be defined in an appropriate section
000000                00123                 MOVLW   D'250'
Warning[207]: Found label after column 1. (CALLFW)
Error[122]  : Illegal opcode (Delay1mS)
000000                00124                 CALLFW  Delay1mS
                      00125         ; Get the LT/UP position
Warning[207]: Found label after column 1. (CALLFL)
Error[122]  : Illegal opcode (LCDsendCMD)
                      00126                 CALLFL  LCDsendCMD,LINE2
Warning[207]: Found label after column 1. (PrintMess)
Error[122]  : Illegal opcode (JCALMES16)
                      00127                 PrintMess JCALMES16
Error[113]  : Symbol not previously defined (Option)
Error[152]  : Executable code and data must be defined in an appropriate section
Error[152]  : Executable code and data must be defined in an appropriate section
000000                00128                 CALL    Option
Error[113]  : Symbol not previously defined (C)
Error[113]  : Symbol not previously defined (ALUSTA)
Error[113]  : Symbol not previously defined (A)
Error[152]  : Executable code and data must be defined in an appropriate section
000000                00129                 BTFSS   ALUSTA,C,A
Error[150]  : Labels must be defined in a code or data section when making an object file
MPASM  5.37                            UI.ASM   8-24-2010  6:19:47         PAGE 142


LOC  OBJECT CODE     LINE SOURCE TEXT
  VALUE

Error[126]  : Argument out of range (FFFA not between 0000 and FFFF)
Error[152]  : Executable code and data must be defined in an appropriate section
Error[152]  : Executable code and data must be defined in an appropriate section
000000                00130                 GOTO    $-6
Error[113]  : Symbol not previously defined (Atemp)
Error[152]  : Executable code and data must be defined in an appropriate section
000000                00131                 MOVLB   HIGH Atemp
Error[113]  : Symbol not previously defined (Atemp)
Error[152]  : Executable code and data must be defined in an appropriate section
000000                00132                 MOVF    Atemp,W
Warning[207]: Found label after column 1. (CALLFW)
Error[122]  : Illegal opcode (ReadADC256)
000000                00133                 CALLFW  ReadADC256
Error[113]  : Symbol not previously defined (ADCsum)
Error[152]  : Executable code and data must be defined in an appropriate section
Error[113]  : Symbol not previously defined (Gh)
Error[152]  : Executable code and data must be defined in an appropriate section
000000                00134                 MOVFF   ADCsum+1,Gh
Error[113]  : Symbol not previously defined (ADCsum)
Error[152]  : Executable code and data must be defined in an appropriate section
Error[113]  : Symbol not previously defined (Gh)
Error[152]  : Executable code and data must be defined in an appropriate section
000000                00135                 MOVFF   ADCsum+2,Gh+1
Error[152]  : Executable code and data must be defined in an appropriate section
000000                00136                 MOVLW   D'250'
Warning[207]: Found label after column 1. (CALLFW)
Error[122]  : Illegal opcode (Delay1mS)
000000                00137                 CALLFW  Delay1mS
                      00138         ; Now calcuate the gain
                      00139         ; Ct = (LT/UP + RT/DWN)/2
Error[113]  : Symbol not previously defined (Ct)
Error[152]  : Executable code and data must be defined in an appropriate section
000000                00140                 MOVLB   HIGH Ct
Error[113]  : Symbol not previously defined (Gh)
Error[152]  : Executable code and data must be defined in an appropriate section
000000                00141                 MOVF    Gh,W
Error[113]  : Symbol not previously defined (Ct)
Error[152]  : Executable code and data must be defined in an appropriate section
000000                00142                 ADDWF   Ct
Error[113]  : Symbol not previously defined (Gh)
Error[152]  : Executable code and data must be defined in an appropriate section
000000                00143                 MOVF    Gh+1,W
Error[113]  : Symbol not previously defined (Ct)
Error[152]  : Executable code and data must be defined in an appropriate section
000000                00144                 ADDWFC  Ct+1
Error[113]  : Symbol not previously defined (Ct)
Error[152]  : Executable code and data must be defined in an appropriate section
000000                00145                 RRCF    Ct+1
Error[113]  : Symbol not previously defined (Ct)
Error[152]  : Executable code and data must be defined in an appropriate section
000000                00146                 RRCF    Ct
Error[113]  : Symbol not previously defined (Ct)
Error[152]  : Executable code and data must be defined in an appropriate section
MPASM  5.37                            UI.ASM   8-24-2010  6:19:47         PAGE 143


LOC  OBJECT CODE     LINE SOURCE TEXT
  VALUE

000000                00147                 BCF     Ct+1,7
                      00148         ; Gh = 1000 * 256/(LT/UP - RT/DWN)/2)
Warning[207]: Found label after column 1. (MOVE)
Error[122]  : Illegal opcode (Gl)
                      00149                 MOVE    Gl,DEXreg
                      00150                 ; Set the 32 bit CEXreg to 1000 time 256
Error[113]  : Symbol not previously defined (CEXreg)
Error[152]  : Executable code and data must be defined in an appropriate section
000000                00151                 MOVLB   HIGH CEXreg
Error[152]  : Executable code and data must be defined in an appropriate section
000000                00152                 MOVLW   LOW (D'1000')
Error[113]  : Symbol not previously defined (CEXreg)
Error[152]  : Executable code and data must be defined in an appropriate section
000000                00153                 MOVWF   CEXreg+1
Error[152]  : Executable code and data must be defined in an appropriate section
000000                00154                 MOVLW   HIGH (D'1000')
Error[113]  : Symbol not previously defined (CEXreg)
Error[152]  : Executable code and data must be defined in an appropriate section
000000                00155                 MOVWF   CEXreg+2
Error[152]  : Executable code and data must be defined in an appropriate section
000000                00156                 MOVLW   0
Error[113]  : Symbol not previously defined (CEXreg)
Error[152]  : Executable code and data must be defined in an appropriate section
000000                00157                 CLRF    CEXreg
Error[113]  : Symbol not previously defined (CEXreg)
Error[152]  : Executable code and data must be defined in an appropriate section
000000                00158                 CLRF    CEXreg+3
                      00159                 ;
Error[113]  : Symbol not previously defined (Gh)
Error[152]  : Executable code and data must be defined in an appropriate section
000000                00160                 MOVF    Gh,W
Error[113]  : Symbol not previously defined (DEXreg)
Error[152]  : Executable code and data must be defined in an appropriate section
000000                00161                 SUBWF   DEXreg
Error[113]  : Symbol not previously defined (Gh)
Error[152]  : Executable code and data must be defined in an appropriate section
000000                00162                 MOVF    Gh+1,W
Error[113]  : Symbol not previously defined (DEXreg)
Error[152]  : Executable code and data must be defined in an appropriate section
000000                00163                 SUBWFB  DEXreg+1
Error[113]  : Symbol not previously defined (DEXreg)
Error[152]  : Executable code and data must be defined in an appropriate section
000000                00164                 RRCF    DEXreg+1
Error[113]  : Symbol not previously defined (DEXreg)
Error[152]  : Executable code and data must be defined in an appropriate section
000000                00165                 RRCF    DEXreg
Error[113]  : Symbol not previously defined (DEXreg)
Error[152]  : Executable code and data must be defined in an appropriate section
000000                00166                 BTG     DEXreg+1,7
Error[113]  : Symbol not previously defined (DEXreg)
Error[152]  : Executable code and data must be defined in an appropriate section
000000                00167                 CLRF    DEXreg+2
Error[113]  : Symbol not previously defined (DEXreg)
MPASM  5.37                            UI.ASM   8-24-2010  6:19:47         PAGE 144


LOC  OBJECT CODE     LINE SOURCE TEXT
  VALUE

Error[152]  : Executable code and data must be defined in an appropriate section
000000                00168                 CLRF    DEXreg+3
Error[113]  : Symbol not previously defined (Divide2416)
Error[152]  : Executable code and data must be defined in an appropriate section
Error[152]  : Executable code and data must be defined in an appropriate section
000000                00169                 CALL    Divide2416
Warning[207]: Found label after column 1. (MOVE)
Error[122]  : Illegal opcode (CEXreg)
000000                00170                 MOVE    CEXreg,Gh
                      00171         ; Move the results
Warning[207]: Found label after column 1. (MOVEC)
Error[122]  : Illegal opcode (Gh)
                      00172                 MOVEC   Gh,Src
Error[152]  : Executable code and data must be defined in an appropriate section
000000                00173                 MOVLW   4
Error[113]  : Symbol not previously defined (Cnt)
Error[152]  : Executable code and data must be defined in an appropriate section
000000                00174                 MOVLB   HIGH Cnt
Error[113]  : Symbol not previously defined (Cnt)
Error[152]  : Executable code and data must be defined in an appropriate section
000000                00175                 MOVWF   Cnt
Error[113]  : Symbol not previously defined (BlkMove)
Error[152]  : Executable code and data must be defined in an appropriate section
Error[152]  : Executable code and data must be defined in an appropriate section
000000                00176                 CALL    BlkMove
Error[152]  : Executable code and data must be defined in an appropriate section
000000                00177                 RETURN
                      00178 
                      00179 
                      00180 ; Define a channels gain parameters to convert raw ADC counts to normalized units
                      00181 ; for a non-centering channel.
                      00182 ; Steps:
                      00183 ;       1.) Read RT/DWN position
                      00184 ;       2.) Read LT/UP position
                      00185 ;       Ct = LT/UP
                      00186 ;       GH = 1000 * 256/(RT/DWN-Ct)
                      00187 ; Results placed in the following reg during the calculations then moved to
                      00188 ; final location:
                      00189 ;       Gh,Ct
                      00190 ; On call the parameters needed are packed in the DXreg. The MSB contains
                      00191 ; the ADC channel number and the LSB contains the low 8 bit of the location
                      00192 ; address for the results. Its assumed that are destinations are in the
                      00193 ; same page.
                      00194 ; DXreg = (ADC channel):(low byte address of Destination)
Error[150]  : Labels must be defined in a code or data section when making an object file
000000                00195 JSncChan
                      00196         ; Load the Dst register and the ADC channel
Error[113]  : Symbol not previously defined (DXreg)
Error[152]  : Executable code and data must be defined in an appropriate section
000000                00197                 MOVLB   HIGH DXreg
Error[113]  : Symbol not previously defined (DXreg)
Error[152]  : Executable code and data must be defined in an appropriate section
000000                00198                 MOVF    DXreg,W
MPASM  5.37                            UI.ASM   8-24-2010  6:19:47         PAGE 145


LOC  OBJECT CODE     LINE SOURCE TEXT
  VALUE

Error[113]  : Symbol not previously defined (Dst)
Error[152]  : Executable code and data must be defined in an appropriate section
000000                00199                 MOVWF   Dst
Error[113]  : Symbol not previously defined (AHG)
Error[152]  : Executable code and data must be defined in an appropriate section
000000                00200                 MOVLW   HIGH (AHG)
Error[113]  : Symbol not previously defined (Dst)
Error[152]  : Executable code and data must be defined in an appropriate section
000000                00201                 MOVWF   Dst+1
Error[113]  : Symbol not previously defined (DXreg)
Error[152]  : Executable code and data must be defined in an appropriate section
000000                00202                 MOVF    DXreg+1,W
                      00203         ; Save channel in Areg
Error[113]  : Symbol not previously defined (Atemp)
Error[152]  : Executable code and data must be defined in an appropriate section
000000                00204                 MOVLB   HIGH Atemp
Error[113]  : Symbol not previously defined (Atemp)
Error[152]  : Executable code and data must be defined in an appropriate section
000000                00205                 MOVWF   Atemp
                      00206         ; Get the RT/DWN position
Warning[207]: Found label after column 1. (CALLFL)
Error[122]  : Illegal opcode (LCDsendCMD)
                      00207                 CALLFL  LCDsendCMD,LINE2
Warning[207]: Found label after column 1. (PrintMess)
Error[122]  : Illegal opcode (JCALMES15)
                      00208                 PrintMess JCALMES15
Warning[207]: Found label after column 1. (CALLF)
Error[122]  : Illegal opcode (Option)
                      00209                 CALLF   Option
Error[113]  : Symbol not previously defined (C)
Error[113]  : Symbol not previously defined (ALUSTA)
Error[113]  : Symbol not previously defined (A)
Error[152]  : Executable code and data must be defined in an appropriate section
000000                00210                 BTFSS   ALUSTA,C,A
Error[150]  : Labels must be defined in a code or data section when making an object file
Error[126]  : Argument out of range (FFFA not between 0000 and FFFF)
Error[152]  : Executable code and data must be defined in an appropriate section
Error[152]  : Executable code and data must be defined in an appropriate section
000000                00211                 GOTO    $-6
Error[113]  : Symbol not previously defined (Atemp)
Error[152]  : Executable code and data must be defined in an appropriate section
000000                00212                 MOVLB   HIGH Atemp
Error[113]  : Symbol not previously defined (Atemp)
Error[152]  : Executable code and data must be defined in an appropriate section
000000                00213                 MOVF    Atemp,W
Warning[207]: Found label after column 1. (CALLFW)
Error[122]  : Illegal opcode (ReadADC256)
000000                00214                 CALLFW  ReadADC256
Error[113]  : Symbol not previously defined (ADCsum)
Error[152]  : Executable code and data must be defined in an appropriate section
Error[113]  : Symbol not previously defined (Gh)
Error[152]  : Executable code and data must be defined in an appropriate section
000000                00215                 MOVFF   ADCsum+1,Gh
MPASM  5.37                            UI.ASM   8-24-2010  6:19:47         PAGE 146


LOC  OBJECT CODE     LINE SOURCE TEXT
  VALUE

Error[113]  : Symbol not previously defined (ADCsum)
Error[152]  : Executable code and data must be defined in an appropriate section
Error[113]  : Symbol not previously defined (Gh)
Error[152]  : Executable code and data must be defined in an appropriate section
000000                00216                 MOVFF   ADCsum+2,Gh+1
Error[152]  : Executable code and data must be defined in an appropriate section
000000                00217                 MOVLW   D'250'
Warning[207]: Found label after column 1. (CALLFW)
Error[122]  : Illegal opcode (Delay1mS)
000000                00218                 CALLFW  Delay1mS
                      00219         ; Get the LT/UP position
Warning[207]: Found label after column 1. (CALLFL)
Error[122]  : Illegal opcode (LCDsendCMD)
                      00220                 CALLFL  LCDsendCMD,LINE2
Warning[207]: Found label after column 1. (PrintMess)
Error[122]  : Illegal opcode (JCALMES16)
                      00221                 PrintMess JCALMES16
Error[113]  : Symbol not previously defined (Option)
Error[152]  : Executable code and data must be defined in an appropriate section
Error[152]  : Executable code and data must be defined in an appropriate section
000000                00222                 CALL    Option
Error[113]  : Symbol not previously defined (C)
Error[113]  : Symbol not previously defined (ALUSTA)
Error[113]  : Symbol not previously defined (A)
Error[152]  : Executable code and data must be defined in an appropriate section
000000                00223                 BTFSS   ALUSTA,C,A
Error[150]  : Labels must be defined in a code or data section when making an object file
Error[126]  : Argument out of range (FFFA not between 0000 and FFFF)
Error[152]  : Executable code and data must be defined in an appropriate section
Error[152]  : Executable code and data must be defined in an appropriate section
000000                00224                 GOTO    $-6
Error[113]  : Symbol not previously defined (Atemp)
Error[152]  : Executable code and data must be defined in an appropriate section
000000                00225                 MOVLB   HIGH Atemp
Error[113]  : Symbol not previously defined (Atemp)
Error[152]  : Executable code and data must be defined in an appropriate section
000000                00226                 MOVF    Atemp,W
Warning[207]: Found label after column 1. (CALLFW)
Error[122]  : Illegal opcode (ReadADC256)
000000                00227                 CALLFW  ReadADC256
Error[113]  : Symbol not previously defined (ADCsum)
Error[152]  : Executable code and data must be defined in an appropriate section
Error[113]  : Symbol not previously defined (Ct)
Error[152]  : Executable code and data must be defined in an appropriate section
000000                00228                 MOVFF   ADCsum+1,Ct
Error[113]  : Symbol not previously defined (ADCsum)
Error[152]  : Executable code and data must be defined in an appropriate section
Error[113]  : Symbol not previously defined (Ct)
Error[152]  : Executable code and data must be defined in an appropriate section
000000                00229                 MOVFF   ADCsum+2,Ct+1
Error[152]  : Executable code and data must be defined in an appropriate section
000000                00230                 MOVLW   D'250'
Warning[207]: Found label after column 1. (CALLFW)
MPASM  5.37                            UI.ASM   8-24-2010  6:19:47         PAGE 147


LOC  OBJECT CODE     LINE SOURCE TEXT
  VALUE

Error[122]  : Illegal opcode (Delay1mS)
000000                00231                 CALLFW  Delay1mS
                      00232         ; Now calcuate the gain
                      00233         ; Calculate the gain values.
                      00234         ; Gh = (1000 * 256)/(Gh-Ct)
                      00235                 ; Set the 32 bit CEXreg to 1000 time 256
Error[113]  : Symbol not previously defined (CEXreg)
Error[152]  : Executable code and data must be defined in an appropriate section
000000                00236                 MOVLB   HIGH CEXreg
Error[152]  : Executable code and data must be defined in an appropriate section
000000                00237                 MOVLW   LOW (D'1000')
Error[113]  : Symbol not previously defined (CEXreg)
Error[152]  : Executable code and data must be defined in an appropriate section
000000                00238                 MOVWF   CEXreg+1
Error[152]  : Executable code and data must be defined in an appropriate section
000000                00239                 MOVLW   HIGH (D'1000')
Error[113]  : Symbol not previously defined (CEXreg)
Error[152]  : Executable code and data must be defined in an appropriate section
000000                00240                 MOVWF   CEXreg+2
Error[152]  : Executable code and data must be defined in an appropriate section
000000                00241                 MOVLW   0
Error[113]  : Symbol not previously defined (CEXreg)
Error[152]  : Executable code and data must be defined in an appropriate section
000000                00242                 CLRF    CEXreg
Error[113]  : Symbol not previously defined (CEXreg)
Error[152]  : Executable code and data must be defined in an appropriate section
000000                00243                 CLRF    CEXreg+3
                      00244                 ;
Warning[207]: Found label after column 1. (MOVE)
Error[122]  : Illegal opcode (Gh)
                      00245                 MOVE    Gh,DEXreg
Error[113]  : Symbol not previously defined (DEXreg)
Error[152]  : Executable code and data must be defined in an appropriate section
000000                00246                 CLRF    DEXreg+2
Error[113]  : Symbol not previously defined (DEXreg)
Error[152]  : Executable code and data must be defined in an appropriate section
000000                00247                 CLRF    DEXreg+3
Error[113]  : Symbol not previously defined (Ct)
Error[152]  : Executable code and data must be defined in an appropriate section
000000                00248                 MOVLB   HIGH Ct
Error[113]  : Symbol not previously defined (Ct)
Error[152]  : Executable code and data must be defined in an appropriate section
000000                00249                 MOVF    Ct,W
Error[113]  : Symbol not previously defined (DEXreg)
Error[152]  : Executable code and data must be defined in an appropriate section
000000                00250                 SUBWF   DEXreg
Error[113]  : Symbol not previously defined (Ct)
Error[152]  : Executable code and data must be defined in an appropriate section
000000                00251                 MOVF    Ct+1,W
Error[113]  : Symbol not previously defined (DEXreg)
Error[152]  : Executable code and data must be defined in an appropriate section
000000                00252                 SUBWFB  DEXreg+1
Error[113]  : Symbol not previously defined (DEXreg)
MPASM  5.37                            UI.ASM   8-24-2010  6:19:47         PAGE 148


LOC  OBJECT CODE     LINE SOURCE TEXT
  VALUE

Error[152]  : Executable code and data must be defined in an appropriate section
000000                00253                 BTFSS   DEXreg+1,7
Error[150]  : Labels must be defined in a code or data section when making an object file
Error[152]  : Executable code and data must be defined in an appropriate section
Error[152]  : Executable code and data must be defined in an appropriate section
000000                00254                 GOTO    $+6
Error[152]  : Executable code and data must be defined in an appropriate section
000000                00255                 MOVLW   0FF
Error[113]  : Symbol not previously defined (DEXreg)
Error[152]  : Executable code and data must be defined in an appropriate section
000000                00256                 MOVWF   DEXreg+2
Error[113]  : Symbol not previously defined (DEXreg)
Error[152]  : Executable code and data must be defined in an appropriate section
000000                00257                 MOVWF   DEXreg+3
Warning[207]: Found label after column 1. (CALLF)
Error[122]  : Illegal opcode (Divide2416)
000000                00258                 CALLF   Divide2416
Warning[207]: Found label after column 1. (MOVE)
Error[122]  : Illegal opcode (CEXreg)
000000                00259                 MOVE    CEXreg,Gh
                      00260         ; Move the results
Warning[207]: Found label after column 1. (MOVEC)
Error[122]  : Illegal opcode (Gh)
                      00261                 MOVEC   Gh,Src
Error[152]  : Executable code and data must be defined in an appropriate section
000000                00262                 MOVLW   4
Error[113]  : Symbol not previously defined (Cnt)
Error[152]  : Executable code and data must be defined in an appropriate section
000000                00263                 MOVLB   HIGH Cnt
Error[113]  : Symbol not previously defined (Cnt)
Error[152]  : Executable code and data must be defined in an appropriate section
000000                00264                 MOVWF   Cnt
Error[113]  : Symbol not previously defined (BlkMove)
Error[152]  : Executable code and data must be defined in an appropriate section
Error[152]  : Executable code and data must be defined in an appropriate section
000000                00265                 CALL    BlkMove
Error[152]  : Executable code and data must be defined in an appropriate section
000000                00266                 RETURN
                      00267 
                      00268 ; Define a channels gain parameters to convert raw ADC counts to normalized units
                      00269 ; for a centering channel.
                      00270 ; Steps:
                      00271 ;       1.) Read center position
                      00272 ;       2.) Read RT/DWN position
                      00273 ;       3.) Read LT/UP position
                      00274 ;       Ct = center value
                      00275 ;       GH = 1000 * 256/(RT/DWN-Ct)
                      00276 ;       GL = 1000 * 256/(Ct-LT/UP)
                      00277 ; Results placed in the following reg during the calculations then moved to
                      00278 ; final location:
                      00279 ;       Gh,Ct,Gl
                      00280 ; On call the parameters needed are packed in the DXreg. The MSB contains
                      00281 ; the ADC channel number and the LSB contains the low 8 bit of the location
MPASM  5.37                            UI.ASM   8-24-2010  6:19:47         PAGE 149


LOC  OBJECT CODE     LINE SOURCE TEXT
  VALUE

                      00282 ; address for the results. Its assumed that are destinations are in the
                      00283 ; same page.
                      00284 ; DXreg = (ADC channel):(low byte address of Destination)
Error[150]  : Labels must be defined in a code or data section when making an object file
000000                00285 JScChan
                      00286         ; Load the Dst register and the ADC channel
Error[113]  : Symbol not previously defined (DXreg)
Error[152]  : Executable code and data must be defined in an appropriate section
000000                00287                 MOVLB   HIGH DXreg
Error[113]  : Symbol not previously defined (DXreg)
Error[152]  : Executable code and data must be defined in an appropriate section
000000                00288                 MOVF    DXreg,W
Error[113]  : Symbol not previously defined (Dst)
Error[152]  : Executable code and data must be defined in an appropriate section
000000                00289                 MOVWF   Dst
Error[113]  : Symbol not previously defined (AHG)
Error[152]  : Executable code and data must be defined in an appropriate section
000000                00290                 MOVLW   HIGH (AHG)
Error[113]  : Symbol not previously defined (Dst)
Error[152]  : Executable code and data must be defined in an appropriate section
000000                00291                 MOVWF   Dst+1
Error[113]  : Symbol not previously defined (DXreg)
Error[152]  : Executable code and data must be defined in an appropriate section
000000                00292                 MOVF    DXreg+1,W
                      00293         ; Save channel in Areg
Error[113]  : Symbol not previously defined (Atemp)
Error[152]  : Executable code and data must be defined in an appropriate section
000000                00294                 MOVLB   HIGH Atemp
Error[113]  : Symbol not previously defined (Atemp)
Error[152]  : Executable code and data must be defined in an appropriate section
000000                00295                 MOVWF   Atemp
                      00296         ; Get the center position
Warning[207]: Found label after column 1. (CALLFL)
Error[122]  : Illegal opcode (LCDsendCMD)
                      00297                 CALLFL  LCDsendCMD,LINE2
Warning[207]: Found label after column 1. (PrintMess)
Error[122]  : Illegal opcode (JCALMES14)
                      00298                 PrintMess JCALMES14
Error[113]  : Symbol not previously defined (Option)
Error[152]  : Executable code and data must be defined in an appropriate section
Error[152]  : Executable code and data must be defined in an appropriate section
000000                00299                 CALL    Option
Error[113]  : Symbol not previously defined (C)
Error[113]  : Symbol not previously defined (ALUSTA)
Error[113]  : Symbol not previously defined (A)
Error[152]  : Executable code and data must be defined in an appropriate section
000000                00300                 BTFSS   ALUSTA,C,A
Error[150]  : Labels must be defined in a code or data section when making an object file
Error[126]  : Argument out of range (FFFA not between 0000 and FFFF)
Error[152]  : Executable code and data must be defined in an appropriate section
Error[152]  : Executable code and data must be defined in an appropriate section
000000                00301                 GOTO    $-6
Error[113]  : Symbol not previously defined (Atemp)
MPASM  5.37                            UI.ASM   8-24-2010  6:19:47         PAGE 150


LOC  OBJECT CODE     LINE SOURCE TEXT
  VALUE

Error[152]  : Executable code and data must be defined in an appropriate section
000000                00302                 MOVLB   HIGH Atemp
Error[113]  : Symbol not previously defined (Atemp)
Error[152]  : Executable code and data must be defined in an appropriate section
000000                00303                 MOVF    Atemp,W
Warning[207]: Found label after column 1. (CALLFW)
Error[122]  : Illegal opcode (ReadADC256)
000000                00304                 CALLFW  ReadADC256
Error[113]  : Symbol not previously defined (ADCsum)
Error[152]  : Executable code and data must be defined in an appropriate section
Error[113]  : Symbol not previously defined (Ct)
Error[152]  : Executable code and data must be defined in an appropriate section
000000                00305                 MOVFF   ADCsum+1,Ct
Error[113]  : Symbol not previously defined (ADCsum)
Error[152]  : Executable code and data must be defined in an appropriate section
Error[113]  : Symbol not previously defined (Ct)
Error[152]  : Executable code and data must be defined in an appropriate section
000000                00306                 MOVFF   ADCsum+2,Ct+1
Error[152]  : Executable code and data must be defined in an appropriate section
000000                00307                 MOVLW   D'250'
Warning[207]: Found label after column 1. (CALLFW)
Error[122]  : Illegal opcode (Delay1mS)
000000                00308                 CALLFW  Delay1mS
                      00309         ; Get the RT/DWN position
Warning[207]: Found label after column 1. (CALLFL)
Error[122]  : Illegal opcode (LCDsendCMD)
                      00310                 CALLFL  LCDsendCMD,LINE2
Warning[207]: Found label after column 1. (PrintMess)
Error[122]  : Illegal opcode (JCALMES15)
                      00311                 PrintMess JCALMES15
Error[113]  : Symbol not previously defined (Option)
Error[152]  : Executable code and data must be defined in an appropriate section
Error[152]  : Executable code and data must be defined in an appropriate section
000000                00312                 CALL    Option
Error[113]  : Symbol not previously defined (C)
Error[113]  : Symbol not previously defined (ALUSTA)
Error[113]  : Symbol not previously defined (A)
Error[152]  : Executable code and data must be defined in an appropriate section
000000                00313                 BTFSS   ALUSTA,C,A
Error[150]  : Labels must be defined in a code or data section when making an object file
Error[126]  : Argument out of range (FFFA not between 0000 and FFFF)
Error[152]  : Executable code and data must be defined in an appropriate section
Error[152]  : Executable code and data must be defined in an appropriate section
000000                00314                 GOTO    $-6
Error[113]  : Symbol not previously defined (Atemp)
Error[152]  : Executable code and data must be defined in an appropriate section
000000                00315                 MOVLB   HIGH Atemp
Error[113]  : Symbol not previously defined (Atemp)
Error[152]  : Executable code and data must be defined in an appropriate section
000000                00316                 MOVF    Atemp,W
Warning[207]: Found label after column 1. (CALLFW)
Error[122]  : Illegal opcode (ReadADC256)
000000                00317                 CALLFW  ReadADC256
MPASM  5.37                            UI.ASM   8-24-2010  6:19:47         PAGE 151


LOC  OBJECT CODE     LINE SOURCE TEXT
  VALUE

Error[113]  : Symbol not previously defined (ADCsum)
Error[152]  : Executable code and data must be defined in an appropriate section
Error[113]  : Symbol not previously defined (Gh)
Error[152]  : Executable code and data must be defined in an appropriate section
000000                00318                 MOVFF   ADCsum+1,Gh
Error[113]  : Symbol not previously defined (ADCsum)
Error[152]  : Executable code and data must be defined in an appropriate section
Error[113]  : Symbol not previously defined (Gh)
Error[152]  : Executable code and data must be defined in an appropriate section
000000                00319                 MOVFF   ADCsum+2,Gh+1
Error[152]  : Executable code and data must be defined in an appropriate section
000000                00320                 MOVLW   D'250'
Warning[207]: Found label after column 1. (CALLFW)
Error[122]  : Illegal opcode (Delay1mS)
000000                00321                 CALLFW  Delay1mS
                      00322         ; Get the LT/UP position
Warning[207]: Found label after column 1. (CALLFL)
Error[122]  : Illegal opcode (LCDsendCMD)
                      00323                 CALLFL  LCDsendCMD,LINE2
Warning[207]: Found label after column 1. (PrintMess)
Error[122]  : Illegal opcode (JCALMES16)
                      00324                 PrintMess JCALMES16
Error[113]  : Symbol not previously defined (Option)
Error[152]  : Executable code and data must be defined in an appropriate section
Error[152]  : Executable code and data must be defined in an appropriate section
000000                00325                 CALL    Option
Error[113]  : Symbol not previously defined (C)
Error[113]  : Symbol not previously defined (ALUSTA)
Error[113]  : Symbol not previously defined (A)
Error[152]  : Executable code and data must be defined in an appropriate section
000000                00326                 BTFSS   ALUSTA,C,A
Error[150]  : Labels must be defined in a code or data section when making an object file
Error[126]  : Argument out of range (FFFA not between 0000 and FFFF)
Error[152]  : Executable code and data must be defined in an appropriate section
Error[152]  : Executable code and data must be defined in an appropriate section
000000                00327                 GOTO    $-6
Error[113]  : Symbol not previously defined (Atemp)
Error[152]  : Executable code and data must be defined in an appropriate section
000000                00328                 MOVLB   HIGH Atemp
Error[113]  : Symbol not previously defined (Atemp)
Error[152]  : Executable code and data must be defined in an appropriate section
000000                00329                 MOVF    Atemp,W
Warning[207]: Found label after column 1. (CALLFW)
Error[122]  : Illegal opcode (ReadADC256)
000000                00330                 CALLFW  ReadADC256
Error[113]  : Symbol not previously defined (ADCsum)
Error[152]  : Executable code and data must be defined in an appropriate section
Error[113]  : Symbol not previously defined (Gl)
Error[152]  : Executable code and data must be defined in an appropriate section
000000                00331                 MOVFF   ADCsum+1,Gl
Error[113]  : Symbol not previously defined (ADCsum)
Error[152]  : Executable code and data must be defined in an appropriate section
Error[113]  : Symbol not previously defined (Gl)
MPASM  5.37                            UI.ASM   8-24-2010  6:19:47         PAGE 152


LOC  OBJECT CODE     LINE SOURCE TEXT
  VALUE

Error[152]  : Executable code and data must be defined in an appropriate section
000000                00332                 MOVFF   ADCsum+2,Gl+1
Error[152]  : Executable code and data must be defined in an appropriate section
000000                00333                 MOVLW   D'250'
Warning[207]: Found label after column 1. (CALLFW)
Error[122]  : Illegal opcode (Delay1mS)
000000                00334                 CALLFW  Delay1mS
                      00335         ; Calculate the gain values.
                      00336         ; Gh = (1000 * 256)/(Gh-Ct)
                      00337                 ; Set the 32 bit CEXreg to 1000 time 256
Error[113]  : Symbol not previously defined (CEXreg)
Error[152]  : Executable code and data must be defined in an appropriate section
000000                00338                 MOVLB   HIGH CEXreg
Error[152]  : Executable code and data must be defined in an appropriate section
000000                00339                 MOVLW   LOW (D'1000')
Error[113]  : Symbol not previously defined (CEXreg)
Error[152]  : Executable code and data must be defined in an appropriate section
000000                00340                 MOVWF   CEXreg+1
Error[152]  : Executable code and data must be defined in an appropriate section
000000                00341                 MOVLW   HIGH (D'1000')
Error[113]  : Symbol not previously defined (CEXreg)
Error[152]  : Executable code and data must be defined in an appropriate section
000000                00342                 MOVWF   CEXreg+2
Error[152]  : Executable code and data must be defined in an appropriate section
000000                00343                 MOVLW   0
Error[113]  : Symbol not previously defined (CEXreg)
Error[152]  : Executable code and data must be defined in an appropriate section
000000                00344                 CLRF    CEXreg
Error[113]  : Symbol not previously defined (CEXreg)
Error[152]  : Executable code and data must be defined in an appropriate section
000000                00345                 CLRF    CEXreg+3
                      00346                 ;
Warning[207]: Found label after column 1. (MOVE)
Error[122]  : Illegal opcode (Gh)
                      00347                 MOVE    Gh,DEXreg
Error[113]  : Symbol not previously defined (DEXreg)
Error[152]  : Executable code and data must be defined in an appropriate section
000000                00348                 CLRF    DEXreg+2
Error[113]  : Symbol not previously defined (DEXreg)
Error[152]  : Executable code and data must be defined in an appropriate section
000000                00349                 CLRF    DEXreg+3
Error[113]  : Symbol not previously defined (Ct)
Error[152]  : Executable code and data must be defined in an appropriate section
000000                00350                 MOVLB   HIGH Ct
Error[113]  : Symbol not previously defined (Ct)
Error[152]  : Executable code and data must be defined in an appropriate section
000000                00351                 MOVF    Ct,W
Error[113]  : Symbol not previously defined (DEXreg)
Error[152]  : Executable code and data must be defined in an appropriate section
000000                00352                 SUBWF   DEXreg
Error[113]  : Symbol not previously defined (Ct)
Error[152]  : Executable code and data must be defined in an appropriate section
000000                00353                 MOVF    Ct+1,W
MPASM  5.37                            UI.ASM   8-24-2010  6:19:47         PAGE 153


LOC  OBJECT CODE     LINE SOURCE TEXT
  VALUE

Error[113]  : Symbol not previously defined (DEXreg)
Error[152]  : Executable code and data must be defined in an appropriate section
000000                00354                 SUBWFB  DEXreg+1
Error[113]  : Symbol not previously defined (DEXreg)
Error[152]  : Executable code and data must be defined in an appropriate section
000000                00355                 BTFSS   DEXreg+1,7
Error[150]  : Labels must be defined in a code or data section when making an object file
Error[152]  : Executable code and data must be defined in an appropriate section
Error[152]  : Executable code and data must be defined in an appropriate section
000000                00356                 GOTO    $+6
Error[152]  : Executable code and data must be defined in an appropriate section
000000                00357                 MOVLW   0FF
Error[113]  : Symbol not previously defined (DEXreg)
Error[152]  : Executable code and data must be defined in an appropriate section
000000                00358                 MOVWF   DEXreg+2
Error[113]  : Symbol not previously defined (DEXreg)
Error[152]  : Executable code and data must be defined in an appropriate section
000000                00359                 MOVWF   DEXreg+3
Error[113]  : Symbol not previously defined (Divide2416)
Error[152]  : Executable code and data must be defined in an appropriate section
Error[152]  : Executable code and data must be defined in an appropriate section
000000                00360                 CALL    Divide2416
Warning[207]: Found label after column 1. (MOVE)
Error[122]  : Illegal opcode (CEXreg)
000000                00361                 MOVE    CEXreg,Gh
                      00362         ; Gl = (1000 * 256)/(Ct-Gl)
                      00363                 ; Set the 32 bit CEXreg to 1000 time 256
Error[113]  : Symbol not previously defined (CEXreg)
Error[152]  : Executable code and data must be defined in an appropriate section
000000                00364                 MOVLB   HIGH CEXreg
Error[152]  : Executable code and data must be defined in an appropriate section
000000                00365                 MOVLW   LOW (D'1000')
Error[113]  : Symbol not previously defined (CEXreg)
Error[152]  : Executable code and data must be defined in an appropriate section
000000                00366                 MOVWF   CEXreg+1
Error[152]  : Executable code and data must be defined in an appropriate section
000000                00367                 MOVLW   HIGH (D'1000')
Error[113]  : Symbol not previously defined (CEXreg)
Error[152]  : Executable code and data must be defined in an appropriate section
000000                00368                 MOVWF   CEXreg+2
Error[152]  : Executable code and data must be defined in an appropriate section
000000                00369                 MOVLW   0
Error[113]  : Symbol not previously defined (CEXreg)
Error[152]  : Executable code and data must be defined in an appropriate section
000000                00370                 CLRF    CEXreg
Error[113]  : Symbol not previously defined (CEXreg)
Error[152]  : Executable code and data must be defined in an appropriate section
000000                00371                 CLRF    CEXreg+3
                      00372                 ;
Warning[207]: Found label after column 1. (MOVE)
Error[122]  : Illegal opcode (Ct)
                      00373                 MOVE    Ct,DEXreg
Error[113]  : Symbol not previously defined (DEXreg)
MPASM  5.37                            UI.ASM   8-24-2010  6:19:47         PAGE 154


LOC  OBJECT CODE     LINE SOURCE TEXT
  VALUE

Error[152]  : Executable code and data must be defined in an appropriate section
000000                00374                 CLRF    DEXreg+2
Error[113]  : Symbol not previously defined (DEXreg)
Error[152]  : Executable code and data must be defined in an appropriate section
000000                00375                 CLRF    DEXreg+3
Error[113]  : Symbol not previously defined (Gl)
Error[152]  : Executable code and data must be defined in an appropriate section
000000                00376                 MOVLB   HIGH Gl
Error[113]  : Symbol not previously defined (Gl)
Error[152]  : Executable code and data must be defined in an appropriate section
000000                00377                 MOVF    Gl,W
Error[113]  : Symbol not previously defined (DEXreg)
Error[152]  : Executable code and data must be defined in an appropriate section
000000                00378                 SUBWF   DEXreg
Error[113]  : Symbol not previously defined (Gl)
Error[152]  : Executable code and data must be defined in an appropriate section
000000                00379                 MOVF    Gl+1,W
Error[113]  : Symbol not previously defined (DEXreg)
Error[152]  : Executable code and data must be defined in an appropriate section
000000                00380                 SUBWFB  DEXreg+1
Error[113]  : Symbol not previously defined (DEXreg)
Error[152]  : Executable code and data must be defined in an appropriate section
000000                00381                 BTFSS   DEXreg+1,7
Error[150]  : Labels must be defined in a code or data section when making an object file
Error[152]  : Executable code and data must be defined in an appropriate section
Error[152]  : Executable code and data must be defined in an appropriate section
000000                00382                 GOTO    $+6
Error[152]  : Executable code and data must be defined in an appropriate section
000000                00383                 MOVLW   0FF
Error[113]  : Symbol not previously defined (DEXreg)
Error[152]  : Executable code and data must be defined in an appropriate section
000000                00384                 MOVWF   DEXreg+2
Error[113]  : Symbol not previously defined (DEXreg)
Error[152]  : Executable code and data must be defined in an appropriate section
000000                00385                 MOVWF   DEXreg+3
Error[113]  : Symbol not previously defined (Divide2416)
Error[152]  : Executable code and data must be defined in an appropriate section
Error[152]  : Executable code and data must be defined in an appropriate section
000000                00386                 CALL    Divide2416
Warning[207]: Found label after column 1. (MOVE)
Error[122]  : Illegal opcode (CEXreg)
000000                00387                 MOVE    CEXreg,Gl
                      00388         ; Move the results
Warning[207]: Found label after column 1. (MOVEC)
Error[122]  : Illegal opcode (Gh)
                      00389                 MOVEC   Gh,Src
Error[152]  : Executable code and data must be defined in an appropriate section
000000                00390                 MOVLW   6
Error[113]  : Symbol not previously defined (Cnt)
Error[152]  : Executable code and data must be defined in an appropriate section
000000                00391                 MOVLB   HIGH Cnt
Error[113]  : Symbol not previously defined (Cnt)
Error[152]  : Executable code and data must be defined in an appropriate section
MPASM  5.37                            UI.ASM   8-24-2010  6:19:47         PAGE 155


LOC  OBJECT CODE     LINE SOURCE TEXT
  VALUE

000000                00392                 MOVWF   Cnt
Error[113]  : Symbol not previously defined (BlkMove)
Error[152]  : Executable code and data must be defined in an appropriate section
Error[152]  : Executable code and data must be defined in an appropriate section
000000                00393                 CALL    BlkMove
Error[152]  : Executable code and data must be defined in an appropriate section
000000                00394                 RETURN
                      00395                 
                      00396 ; This function is used to calibrate the voltmeter used for
                      00397 ; both the transmitter voltage monitor and the receiver voltmeter.
                      00398 ; On call:
                      00399 ;             Ftemp = ADC channel number
                      00400 ;             BXreg = Voltmeter gain control, this value is
                      00401 ;                     adjusted by this function and contains the
                      00402 ;                     result when this function exits.          
Error[150]  : Labels must be defined in a code or data section when making an object file
000000                00403 CalVoltMeter
Warning[207]: Found label after column 1. (CALLFL)
Error[122]  : Illegal opcode (Delay1mS)
000000                00404                 CALLFL  Delay1mS,D'20'
                      00405         ; Read the ADC and calculate the voltage
Error[113]  : Symbol not previously defined (Ftemp)
Error[152]  : Executable code and data must be defined in an appropriate section
000000                00406                 MOVLB   HIGH Ftemp
Error[113]  : Symbol not previously defined (Ftemp)
Error[152]  : Executable code and data must be defined in an appropriate section
000000                00407                 MOVF    Ftemp,W
Warning[207]: Found label after column 1. (CALLFW)
Error[122]  : Illegal opcode (ADCread)
000000                00408                 CALLFW  ADCread
                      00409         ; Display the voltage
Warning[207]: Found label after column 1. (CALLFL)
Error[122]  : Illegal opcode (LCDsendCMD)
                      00410                 CALLFL  LCDsendCMD,LINE2
Warning[207]: Found label after column 1. (PrintMess)
Error[122]  : Illegal opcode (MVOLTS)
                      00411                 PrintMess MVOLTS
Warning[207]: Found label after column 1. (CALLFL)
Error[122]  : Illegal opcode (LCDsendCMD)
                      00412                 CALLFL  LCDsendCMD,LINE2+CVMPOS
Warning[207]: Found label after column 1. (MOVE)
Error[122]  : Illegal opcode (Pos)
                      00413                 MOVE    Pos,AXreg
Error[113]  : Symbol not previously defined (Mult1616)
Error[152]  : Executable code and data must be defined in an appropriate section
Error[152]  : Executable code and data must be defined in an appropriate section
000000                00414                 CALL    Mult1616
Error[113]  : Symbol not previously defined (CEXreg)
Error[152]  : Executable code and data must be defined in an appropriate section
000000                00415                 MOVF    CEXreg+1,W
Error[113]  : Symbol not previously defined (CEXreg)
Error[152]  : Executable code and data must be defined in an appropriate section
000000                00416                 MOVWF   CEXreg
MPASM  5.37                            UI.ASM   8-24-2010  6:19:47         PAGE 156


LOC  OBJECT CODE     LINE SOURCE TEXT
  VALUE

Error[113]  : Symbol not previously defined (CEXreg)
Error[152]  : Executable code and data must be defined in an appropriate section
000000                00417                 MOVF    CEXreg+2,W
Error[113]  : Symbol not previously defined (CEXreg)
Error[152]  : Executable code and data must be defined in an appropriate section
000000                00418                 MOVWF   CEXreg+1
Error[113]  : Symbol not previously defined (CEXreg)
Error[152]  : Executable code and data must be defined in an appropriate section
000000                00419                 CLRF    CEXreg+2
Error[113]  : Symbol not previously defined (Int2Str)
Error[152]  : Executable code and data must be defined in an appropriate section
Error[152]  : Executable code and data must be defined in an appropriate section
000000                00420                 CALL    Int2Str
Error[152]  : Executable code and data must be defined in an appropriate section
000000                00421                 MOVLW   ' '
Error[113]  : Symbol not previously defined (Areg)
Error[152]  : Executable code and data must be defined in an appropriate section
000000                00422                 MOVWF   Areg
Error[152]  : Executable code and data must be defined in an appropriate section
000000                00423                 MOVLW   '0'
Error[113]  : Symbol not previously defined (Buffer)
Error[152]  : Executable code and data must be defined in an appropriate section
000000                00424                 CPFSGT  Buffer
Error[113]  : Symbol not previously defined (Areg)
Error[152]  : Executable code and data must be defined in an appropriate section
Error[113]  : Symbol not previously defined (Buffer)
Error[152]  : Executable code and data must be defined in an appropriate section
000000                00425                 MOVFF   Areg,Buffer
Warning[207]: Found label after column 1. (CALLFF)
Error[122]  : Illegal opcode (LCDsendData)
000000                00426                 CALLFF  LCDsendData,Buffer
Warning[207]: Found label after column 1. (CALLFF)
Error[122]  : Illegal opcode (LCDsendData)
000000                00427                 CALLFF  LCDsendData,Buffer+1
Warning[207]: Found label after column 1. (CALLFL)
Error[122]  : Illegal opcode (LCDsendData)
000000                00428                 CALLFL  LCDsendData,'.'
Warning[207]: Found label after column 1. (CALLFF)
Error[122]  : Illegal opcode (LCDsendData)
000000                00429                 CALLFF  LCDsendData,Buffer+2
Warning[207]: Found label after column 1. (CALLFF)
Error[122]  : Illegal opcode (LCDsendData)
000000                00430                 CALLFF  LCDsendData,Buffer+3
                      00431         ; Test the elevator stick and adjust the gain
Error[151]  : Operand contains unresolvable labels or is too complex
Error[152]  : Executable code and data must be defined in an appropriate section
Error[152]  : Executable code and data must be defined in an appropriate section
000000                00432                 CALL    Elevator
Error[113]  : Symbol not previously defined (Z)
Error[113]  : Symbol not previously defined (ALUSTA)
Error[113]  : Symbol not previously defined (A)
Error[152]  : Executable code and data must be defined in an appropriate section
000000                00433                 BTFSS   ALUSTA,Z,A
MPASM  5.37                            UI.ASM   8-24-2010  6:19:47         PAGE 157


LOC  OBJECT CODE     LINE SOURCE TEXT
  VALUE

Error[151]  : Operand contains unresolvable labels or is too complex
Error[152]  : Executable code and data must be defined in an appropriate section
Error[152]  : Executable code and data must be defined in an appropriate section
000000                00434                 GOTO    CalVolt1
Error[113]  : Symbol not previously defined (BXreg)
Error[152]  : Executable code and data must be defined in an appropriate section
000000                00435                 MOVLB   HIGH BXreg
Error[113]  : Symbol not previously defined (BXreg)
Error[152]  : Executable code and data must be defined in an appropriate section
000000                00436                 INCF    BXreg
Error[113]  : Symbol not previously defined (Z)
Error[113]  : Symbol not previously defined (ALUSTA)
Error[113]  : Symbol not previously defined (A)
Error[152]  : Executable code and data must be defined in an appropriate section
000000                00437                 BTFSC   ALUSTA,Z,A
Error[113]  : Symbol not previously defined (BXreg)
Error[152]  : Executable code and data must be defined in an appropriate section
000000                00438                 INCF    BXreg+1
Error[151]  : Operand contains unresolvable labels or is too complex
Error[152]  : Executable code and data must be defined in an appropriate section
Error[152]  : Executable code and data must be defined in an appropriate section
000000                00439                 GOTO    CalVoltMeter
Error[150]  : Labels must be defined in a code or data section when making an object file
000000                00440 CalVolt1
Error[113]  : Symbol not previously defined (C)
Error[113]  : Symbol not previously defined (ALUSTA)
Error[113]  : Symbol not previously defined (A)
Error[152]  : Executable code and data must be defined in an appropriate section
000000                00441                 BTFSS   ALUSTA,C,A
Error[151]  : Operand contains unresolvable labels or is too complex
Error[152]  : Executable code and data must be defined in an appropriate section
Error[152]  : Executable code and data must be defined in an appropriate section
000000                00442                 GOTO    CalVolt2
Error[113]  : Symbol not previously defined (BXreg)
Error[152]  : Executable code and data must be defined in an appropriate section
000000                00443                 MOVLB   HIGH BXreg
Error[113]  : Symbol not previously defined (BXreg)
Error[152]  : Executable code and data must be defined in an appropriate section
000000                00444                 DECF    BXreg
Error[152]  : Executable code and data must be defined in an appropriate section
000000                00445                 MOVLW   0FF
Error[113]  : Symbol not previously defined (BXreg)
Error[152]  : Executable code and data must be defined in an appropriate section
000000                00446                 CPFSLT  BXreg
Error[113]  : Symbol not previously defined (BXreg)
Error[152]  : Executable code and data must be defined in an appropriate section
000000                00447                 DECF    BXreg+1
Error[151]  : Operand contains unresolvable labels or is too complex
Error[152]  : Executable code and data must be defined in an appropriate section
Error[152]  : Executable code and data must be defined in an appropriate section
000000                00448                 GOTO    CalVoltMeter
                      00449         ; Exit if the Option button is pressed
Error[150]  : Labels must be defined in a code or data section when making an object file
MPASM  5.37                            UI.ASM   8-24-2010  6:19:47         PAGE 158


LOC  OBJECT CODE     LINE SOURCE TEXT
  VALUE

000000                00450 CalVolt2
Error[113]  : Symbol not previously defined (Option)
Error[152]  : Executable code and data must be defined in an appropriate section
Error[152]  : Executable code and data must be defined in an appropriate section
000000                00451                 CALL    Option
Error[113]  : Symbol not previously defined (C)
Error[113]  : Symbol not previously defined (ALUSTA)
Error[113]  : Symbol not previously defined (A)
Error[152]  : Executable code and data must be defined in an appropriate section
000000                00452                 BTFSS   ALUSTA,C,A
Error[151]  : Operand contains unresolvable labels or is too complex
Error[152]  : Executable code and data must be defined in an appropriate section
Error[152]  : Executable code and data must be defined in an appropriate section
000000                00453                 GOTO    CalVoltMeter            
Error[152]  : Executable code and data must be defined in an appropriate section
000000                00454                 RETURN
                      00455 
                      00456 
                      00457 ; This function is called after the frequence band is changed
                      00458 
Error[150]  : Labels must be defined in a code or data section when making an object file
000000                00459 PostBand
Error[152]  : Executable code and data must be defined in an appropriate section
000000                00460                 MOVLW   0FF
Error[113]  : Symbol not previously defined (WREG)
Error[152]  : Executable code and data must be defined in an appropriate section
Error[113]  : Symbol not previously defined (ModelChannel)
Error[152]  : Executable code and data must be defined in an appropriate section
000000                00461                 MOVFF   WREG,ModelChannel
Error[113]  : Symbol not previously defined (PLLinit)
Error[152]  : Executable code and data must be defined in an appropriate section
Error[152]  : Executable code and data must be defined in an appropriate section
000000                00462                 CALL    PLLinit
Error[152]  : Executable code and data must be defined in an appropriate section
000000                00463                 RETURN
                      00464                 
                      00465 ; This function is called after the pilot has selected the desired channel order.
                      00466 ; This function uses the value in Atemp to define the order:
                      00467 ; 1 = ACE,EART5678
                      00468 ; 2 = Futaba, AETR5678
                      00469 ; 3 = Airtronics, EATR5678
                      00470 ; 4 = JR, TAER5678
Error[150]  : Labels must be defined in a code or data section when making an object file
000000                00471 PostSetOrder
                      00472         ; Set channels 5,6,7, and 8. These are the same for all configurations
Error[113]  : Symbol not previously defined (ChannelOrder)
Error[152]  : Executable code and data must be defined in an appropriate section
000000                00473                 MOVLB   HIGH ChannelOrder
Error[152]  : Executable code and data must be defined in an appropriate section
000000                00474                 MOVLW   5
Error[113]  : Symbol not previously defined (ChannelOrder)
Error[152]  : Executable code and data must be defined in an appropriate section
000000                00475                 MOVWF   ChannelOrder+4
MPASM  5.37                            UI.ASM   8-24-2010  6:19:47         PAGE 159


LOC  OBJECT CODE     LINE SOURCE TEXT
  VALUE

Error[152]  : Executable code and data must be defined in an appropriate section
000000                00476                 MOVLW   6
Error[113]  : Symbol not previously defined (ChannelOrder)
Error[152]  : Executable code and data must be defined in an appropriate section
000000                00477                 MOVWF   ChannelOrder+5
Error[152]  : Executable code and data must be defined in an appropriate section
000000                00478                 MOVLW   7
Error[113]  : Symbol not previously defined (ChannelOrder)
Error[152]  : Executable code and data must be defined in an appropriate section
000000                00479                 MOVWF   ChannelOrder+6
Error[152]  : Executable code and data must be defined in an appropriate section
000000                00480                 MOVLW   8
Error[113]  : Symbol not previously defined (ChannelOrder)
Error[152]  : Executable code and data must be defined in an appropriate section
000000                00481                 MOVWF   ChannelOrder+7          
                      00482         ; Test the selected order and set A,E,R,T depending on option selected.
Error[113]  : Symbol not previously defined (Atemp)
Error[152]  : Executable code and data must be defined in an appropriate section
000000                00483                 MOVLB   HIGH Atemp
Error[152]  : Executable code and data must be defined in an appropriate section
000000                00484                 MOVLW   1
Error[113]  : Symbol not previously defined (Atemp)
Error[152]  : Executable code and data must be defined in an appropriate section
000000                00485                 CPFSEQ  Atemp
Error[151]  : Operand contains unresolvable labels or is too complex
Error[152]  : Executable code and data must be defined in an appropriate section
Error[152]  : Executable code and data must be defined in an appropriate section
000000                00486                 GOTO    PSO1
                      00487         ; Here if ACE order
Error[113]  : Symbol not previously defined (ChannelOrder)
Error[152]  : Executable code and data must be defined in an appropriate section
000000                00488                 MOVLB   HIGH ChannelOrder
Error[152]  : Executable code and data must be defined in an appropriate section
000000                00489                 MOVLW   2
Error[113]  : Symbol not previously defined (ChannelOrder)
Error[152]  : Executable code and data must be defined in an appropriate section
000000                00490                 MOVWF   ChannelOrder
Error[152]  : Executable code and data must be defined in an appropriate section
000000                00491                 MOVLW   1
Error[113]  : Symbol not previously defined (ChannelOrder)
Error[152]  : Executable code and data must be defined in an appropriate section
000000                00492                 MOVWF   ChannelOrder+1
Error[152]  : Executable code and data must be defined in an appropriate section
000000                00493                 MOVLW   3
Error[113]  : Symbol not previously defined (ChannelOrder)
Error[152]  : Executable code and data must be defined in an appropriate section
000000                00494                 MOVWF   ChannelOrder+2
Error[152]  : Executable code and data must be defined in an appropriate section
000000                00495                 MOVLW   4
Error[113]  : Symbol not previously defined (ChannelOrder)
Error[152]  : Executable code and data must be defined in an appropriate section
000000                00496                 MOVWF   ChannelOrder+3          
Error[152]  : Executable code and data must be defined in an appropriate section
MPASM  5.37                            UI.ASM   8-24-2010  6:19:47         PAGE 160


LOC  OBJECT CODE     LINE SOURCE TEXT
  VALUE

000000                00497                 RETURN
                      00498         ; Test if Futaba
Error[150]  : Labels must be defined in a code or data section when making an object file
000000                00499 PSO1
Error[113]  : Symbol not previously defined (Atemp)
Error[152]  : Executable code and data must be defined in an appropriate section
000000                00500                 MOVLB   HIGH Atemp
Error[152]  : Executable code and data must be defined in an appropriate section
000000                00501                 MOVLW   2
Error[113]  : Symbol not previously defined (Atemp)
Error[152]  : Executable code and data must be defined in an appropriate section
000000                00502                 CPFSEQ  Atemp
Error[151]  : Operand contains unresolvable labels or is too complex
Error[152]  : Executable code and data must be defined in an appropriate section
Error[152]  : Executable code and data must be defined in an appropriate section
000000                00503                 GOTO    PSO2
                      00504         ; Here if Futaba order
Error[113]  : Symbol not previously defined (ChannelOrder)
Error[152]  : Executable code and data must be defined in an appropriate section
000000                00505                 MOVLB   HIGH ChannelOrder
Error[152]  : Executable code and data must be defined in an appropriate section
000000                00506                 MOVLW   1
Error[113]  : Symbol not previously defined (ChannelOrder)
Error[152]  : Executable code and data must be defined in an appropriate section
000000                00507                 MOVWF   ChannelOrder
Error[152]  : Executable code and data must be defined in an appropriate section
000000                00508                 MOVLW   2
Error[113]  : Symbol not previously defined (ChannelOrder)
Error[152]  : Executable code and data must be defined in an appropriate section
000000                00509                 MOVWF   ChannelOrder+1
Error[152]  : Executable code and data must be defined in an appropriate section
000000                00510                 MOVLW   4
Error[113]  : Symbol not previously defined (ChannelOrder)
Error[152]  : Executable code and data must be defined in an appropriate section
000000                00511                 MOVWF   ChannelOrder+2
Error[152]  : Executable code and data must be defined in an appropriate section
000000                00512                 MOVLW   3
Error[113]  : Symbol not previously defined (ChannelOrder)
Error[152]  : Executable code and data must be defined in an appropriate section
000000                00513                 MOVWF   ChannelOrder+3          
Error[152]  : Executable code and data must be defined in an appropriate section
000000                00514                 RETURN
                      00515         ; Test if Airtronics
Error[150]  : Labels must be defined in a code or data section when making an object file
000000                00516 PSO2
Error[113]  : Symbol not previously defined (Atemp)
Error[152]  : Executable code and data must be defined in an appropriate section
000000                00517                 MOVLB   HIGH Atemp
Error[152]  : Executable code and data must be defined in an appropriate section
000000                00518                 MOVLW   3
Error[113]  : Symbol not previously defined (Atemp)
Error[152]  : Executable code and data must be defined in an appropriate section
000000                00519                 CPFSEQ  Atemp
MPASM  5.37                            UI.ASM   8-24-2010  6:19:47         PAGE 161


LOC  OBJECT CODE     LINE SOURCE TEXT
  VALUE

Error[151]  : Operand contains unresolvable labels or is too complex
Error[152]  : Executable code and data must be defined in an appropriate section
Error[152]  : Executable code and data must be defined in an appropriate section
000000                00520                 GOTO    PSO3
                      00521         ; Here if Airtronics order
Error[113]  : Symbol not previously defined (ChannelOrder)
Error[152]  : Executable code and data must be defined in an appropriate section
000000                00522                 MOVLB   HIGH ChannelOrder
Error[152]  : Executable code and data must be defined in an appropriate section
000000                00523                 MOVLW   2
Error[113]  : Symbol not previously defined (ChannelOrder)
Error[152]  : Executable code and data must be defined in an appropriate section
000000                00524                 MOVWF   ChannelOrder
Error[152]  : Executable code and data must be defined in an appropriate section
000000                00525                 MOVLW   1
Error[113]  : Symbol not previously defined (ChannelOrder)
Error[152]  : Executable code and data must be defined in an appropriate section
000000                00526                 MOVWF   ChannelOrder+1
Error[152]  : Executable code and data must be defined in an appropriate section
000000                00527                 MOVLW   4
Error[113]  : Symbol not previously defined (ChannelOrder)
Error[152]  : Executable code and data must be defined in an appropriate section
000000                00528                 MOVWF   ChannelOrder+2
Error[152]  : Executable code and data must be defined in an appropriate section
000000                00529                 MOVLW   3
Error[113]  : Symbol not previously defined (ChannelOrder)
Error[152]  : Executable code and data must be defined in an appropriate section
000000                00530                 MOVWF   ChannelOrder+3          
Error[152]  : Executable code and data must be defined in an appropriate section
000000                00531                 RETURN
                      00532         ; Test if JR
Error[150]  : Labels must be defined in a code or data section when making an object file
000000                00533 PSO3
Error[113]  : Symbol not previously defined (Atemp)
Error[152]  : Executable code and data must be defined in an appropriate section
000000                00534                 MOVLB   HIGH Atemp
Error[152]  : Executable code and data must be defined in an appropriate section
000000                00535                 MOVLW   4
Error[113]  : Symbol not previously defined (Atemp)
Error[152]  : Executable code and data must be defined in an appropriate section
000000                00536                 CPFSEQ  Atemp
Error[152]  : Executable code and data must be defined in an appropriate section
000000                00537                 RETURN
                      00538         ; Here if JR order
Error[113]  : Symbol not previously defined (ChannelOrder)
Error[152]  : Executable code and data must be defined in an appropriate section
000000                00539                 MOVLB   HIGH ChannelOrder
Error[152]  : Executable code and data must be defined in an appropriate section
000000                00540                 MOVLW   4
Error[113]  : Symbol not previously defined (ChannelOrder)
Error[152]  : Executable code and data must be defined in an appropriate section
000000                00541                 MOVWF   ChannelOrder
Error[152]  : Executable code and data must be defined in an appropriate section
MPASM  5.37                            UI.ASM   8-24-2010  6:19:47         PAGE 162


LOC  OBJECT CODE     LINE SOURCE TEXT
  VALUE

000000                00542                 MOVLW   1
Error[113]  : Symbol not previously defined (ChannelOrder)
Error[152]  : Executable code and data must be defined in an appropriate section
000000                00543                 MOVWF   ChannelOrder+1
Error[152]  : Executable code and data must be defined in an appropriate section
000000                00544                 MOVLW   2
Error[113]  : Symbol not previously defined (ChannelOrder)
Error[152]  : Executable code and data must be defined in an appropriate section
000000                00545                 MOVWF   ChannelOrder+2
Error[152]  : Executable code and data must be defined in an appropriate section
000000                00546                 MOVLW   3
Error[113]  : Symbol not previously defined (ChannelOrder)
Error[152]  : Executable code and data must be defined in an appropriate section
000000                00547                 MOVWF   ChannelOrder+3          
Error[152]  : Executable code and data must be defined in an appropriate section
000000                00548                 RETURN
                      00549                 
                      00550                 
                      00551                 
                      00552                 
                      00553                 
                      00554                 
                      00555                 
                      01567         Include <SelFreq.asm>
                      00001 ;
                      00002 ; This function will display the selected frequency on the display line pointed
                      00003 ; to by the number in Ctemp. The Fband flag is used to define the 
                      00004 ; frequency band.
                      00005 ;
                      00006 ; Fband:
                      00007 ;     1 = 50 MHz
                      00008 ;     2 = 53 MHz
                      00009 ;     3 = 72 MHz
                      00010 ;
Error[150]  : Labels must be defined in a code or data section when making an object file
000000                00011 DisplayFrequency
                      00012         ; If the OFF flag is set, display OFF and exit...
Error[113]  : Symbol not previously defined (SelFreq)
Error[152]  : Executable code and data must be defined in an appropriate section
000000                00013                 MOVLB   HIGH SelFreq
Error[152]  : Executable code and data must be defined in an appropriate section
000000                00014                 MOVLW   0FF
Error[113]  : Symbol not previously defined (SelFreq)
Error[152]  : Executable code and data must be defined in an appropriate section
000000                00015                 CPFSEQ  SelFreq
Error[151]  : Operand contains unresolvable labels or is too complex
Error[152]  : Executable code and data must be defined in an appropriate section
Error[152]  : Executable code and data must be defined in an appropriate section
000000                00016                 GOTO    DF0
Warning[207]: Found label after column 1. (MOVLR)
Error[122]  : Illegal opcode (HIGH)
000000                00017                 MOVLR   HIGH Ctemp
Error[113]  : Symbol not previously defined (Ctemp)
MPASM  5.37                            UI.ASM   8-24-2010  6:19:47         PAGE 163


LOC  OBJECT CODE     LINE SOURCE TEXT
  VALUE

Error[152]  : Executable code and data must be defined in an appropriate section
000000                00018                 MOVF    Ctemp,W
Warning[207]: Found label after column 1. (CALLFW)
Error[122]  : Illegal opcode (LCDsendCMD)
000000                00019                 CALLFW  LCDsendCMD
Warning[207]: Found label after column 1. (PrintMess)
Error[122]  : Illegal opcode (MES6)
000000                00020                 PrintMess MES6
Error[152]  : Executable code and data must be defined in an appropriate section
000000                00021                 RETURN
                      00022         ; Display the selected freq...
Error[150]  : Labels must be defined in a code or data section when making an object file
000000                00023 DF0
                      00024         ; Test if its 53MHz
Error[113]  : Symbol not previously defined (Fband)
Error[152]  : Executable code and data must be defined in an appropriate section
000000                00025                 MOVLB   HIGH Fband
Error[113]  : Symbol not previously defined (Fband)
Error[152]  : Executable code and data must be defined in an appropriate section
000000                00026                 BTFSC   Fband,0
Error[151]  : Operand contains unresolvable labels or is too complex
Error[152]  : Executable code and data must be defined in an appropriate section
Error[152]  : Executable code and data must be defined in an appropriate section
000000                00027                 GOTO    DF50MHz
Error[113]  : Symbol not previously defined (Fband)
Error[152]  : Executable code and data must be defined in an appropriate section
000000                00028                 BTFSS   Fband,1
Error[151]  : Operand contains unresolvable labels or is too complex
Error[152]  : Executable code and data must be defined in an appropriate section
Error[152]  : Executable code and data must be defined in an appropriate section
000000                00029                 GOTO    DF50MHz
                      00030         ; Here if 53MHz
Error[113]  : Symbol not previously defined (Ctemp)
Error[152]  : Executable code and data must be defined in an appropriate section
000000                00031                 MOVLB   HIGH Ctemp
Error[113]  : Symbol not previously defined (Ctemp)
Error[152]  : Executable code and data must be defined in an appropriate section
000000                00032                 MOVF    Ctemp,W
Warning[207]: Found label after column 1. (CALLFW)
Error[122]  : Illegal opcode (LCDsendCMD)
000000                00033                 CALLFW  LCDsendCMD
Warning[207]: Found label after column 1. (PrintMess)
Error[122]  : Illegal opcode (MES5)
000000                00034                 PrintMess MES5
Error[113]  : Symbol not previously defined (Ctemp)
Error[152]  : Executable code and data must be defined in an appropriate section
000000                00035                 MOVLB   HIGH Ctemp
Error[113]  : Symbol not previously defined (Ctemp)
Error[152]  : Executable code and data must be defined in an appropriate section
000000                00036                 MOVF    Ctemp,W
Error[113]  : Symbol not previously defined (CH53POS)
Error[152]  : Executable code and data must be defined in an appropriate section
000000                00037                 ADDLW   CH53POS
MPASM  5.37                            UI.ASM   8-24-2010  6:19:47         PAGE 164


LOC  OBJECT CODE     LINE SOURCE TEXT
  VALUE

Warning[207]: Found label after column 1. (CALLFW)
Error[122]  : Illegal opcode (LCDsendCMD)
000000                00038                 CALLFW  LCDsendCMD
Error[113]  : Symbol not previously defined (SelFreq)
Error[152]  : Executable code and data must be defined in an appropriate section
000000                00039                 MOVLB   HIGH SelFreq
Error[152]  : Executable code and data must be defined in an appropriate section
000000                00040                 MOVLW   031
Error[113]  : Symbol not previously defined (SelFreq)
Error[152]  : Executable code and data must be defined in an appropriate section
000000                00041                 ADDWF   SelFreq,0
Warning[207]: Found label after column 1. (CALLFW)
Error[122]  : Illegal opcode (LCDsendData)
000000                00042                 CALLFW  LCDsendData
Error[152]  : Executable code and data must be defined in an appropriate section
000000                00043                 RETURN
Error[150]  : Labels must be defined in a code or data section when making an object file
000000                00044 DF50MHz
                      00045         ; Test if its 50MHz
Error[113]  : Symbol not previously defined (Fband)
Error[152]  : Executable code and data must be defined in an appropriate section
000000                00046                 MOVLB   HIGH Fband
Error[113]  : Symbol not previously defined (Fband)
Error[152]  : Executable code and data must be defined in an appropriate section
000000                00047                 BTFSS   Fband,0
Error[151]  : Operand contains unresolvable labels or is too complex
Error[152]  : Executable code and data must be defined in an appropriate section
Error[152]  : Executable code and data must be defined in an appropriate section
000000                00048                 GOTO    DF72MHz
Error[113]  : Symbol not previously defined (Fband)
Error[152]  : Executable code and data must be defined in an appropriate section
000000                00049                 BTFSC   Fband,1
Error[151]  : Operand contains unresolvable labels or is too complex
Error[152]  : Executable code and data must be defined in an appropriate section
Error[152]  : Executable code and data must be defined in an appropriate section
000000                00050                 GOTO    DF72MHz
                      00051         ; Here if its 50MHz     
Error[113]  : Symbol not previously defined (Ctemp)
Error[152]  : Executable code and data must be defined in an appropriate section
000000                00052                 MOVLB   HIGH Ctemp
Error[113]  : Symbol not previously defined (Ctemp)
Error[152]  : Executable code and data must be defined in an appropriate section
000000                00053                 MOVF    Ctemp,W
Warning[207]: Found label after column 1. (CALLFW)
Error[122]  : Illegal opcode (LCDsendCMD)
000000                00054                 CALLFW  LCDsendCMD
Warning[207]: Found label after column 1. (PrintMess)
Error[122]  : Illegal opcode (MES14)
000000                00055                 PrintMess MES14
Error[113]  : Symbol not previously defined (Ctemp)
Error[152]  : Executable code and data must be defined in an appropriate section
000000                00056                 MOVLB   HIGH Ctemp
Error[113]  : Symbol not previously defined (Ctemp)
MPASM  5.37                            UI.ASM   8-24-2010  6:19:47         PAGE 165


LOC  OBJECT CODE     LINE SOURCE TEXT
  VALUE

Error[152]  : Executable code and data must be defined in an appropriate section
000000                00057                 MOVF    Ctemp,W
Error[113]  : Symbol not previously defined (CH50POS)
Error[152]  : Executable code and data must be defined in an appropriate section
000000                00058                 ADDLW   CH50POS
Warning[207]: Found label after column 1. (CALLFW)
Error[122]  : Illegal opcode (LCDsendCMD)
000000                00059                 CALLFW  LCDsendCMD
Error[113]  : Symbol not previously defined (SelFreq)
Error[152]  : Executable code and data must be defined in an appropriate section
000000                00060                 MOVLB   HIGH SelFreq
Error[152]  : Executable code and data must be defined in an appropriate section
000000                00061                 MOVLW   030
Error[113]  : Symbol not previously defined (SelFreq)
Error[152]  : Executable code and data must be defined in an appropriate section
000000                00062                 ADDWF   SelFreq,W
Warning[207]: Found label after column 1. (CALLFW)
Error[122]  : Illegal opcode (LCDsendData)
000000                00063                 CALLFW  LCDsendData
                      00064                 ; Now do the frequency part...
Error[113]  : Symbol not previously defined (SelFreq)
Error[152]  : Executable code and data must be defined in an appropriate section
000000                00065                 MOVLB   HIGH SelFreq
Error[113]  : Symbol not previously defined (SelFreq)
Error[152]  : Executable code and data must be defined in an appropriate section
000000                00066                 MOVF    SelFreq,W
Error[113]  : Symbol not previously defined (C)
Error[113]  : Symbol not previously defined (ALUSTA)
Error[152]  : Executable code and data must be defined in an appropriate section
000000                00067                 BCF     ALUSTA,C
Error[113]  : Symbol not previously defined (WREG)
Error[152]  : Executable code and data must be defined in an appropriate section
000000                00068                 RLCF    WREG
Error[152]  : Executable code and data must be defined in an appropriate section
000000                00069                 ADDLW   D'80'
                      00070                 ; WREG now holds the variable part of the freq,
                      00071                 ; convert it to a string
Error[113]  : Symbol not previously defined (CEXreg)
Error[152]  : Executable code and data must be defined in an appropriate section
000000                00072                 MOVLB   HIGH CEXreg
Error[113]  : Symbol not previously defined (CEXreg)
Error[152]  : Executable code and data must be defined in an appropriate section
000000                00073                 MOVWF   CEXreg
Error[113]  : Symbol not previously defined (CEXreg)
Error[152]  : Executable code and data must be defined in an appropriate section
000000                00074                 CLRF    CEXreg+1
Error[113]  : Symbol not previously defined (CEXreg)
Error[152]  : Executable code and data must be defined in an appropriate section
000000                00075                 CLRF    CEXreg+2
Error[113]  : Symbol not previously defined (CEXreg)
Error[152]  : Executable code and data must be defined in an appropriate section
000000                00076                 CLRF    CEXreg+3
Error[113]  : Symbol not previously defined (Int2Str)
MPASM  5.37                            UI.ASM   8-24-2010  6:19:47         PAGE 166


LOC  OBJECT CODE     LINE SOURCE TEXT
  VALUE

Error[152]  : Executable code and data must be defined in an appropriate section
Error[152]  : Executable code and data must be defined in an appropriate section
000000                00077                 CALL    Int2Str
                      00078                 ; Now Print the number...
Error[113]  : Symbol not previously defined (Ctemp)
Error[152]  : Executable code and data must be defined in an appropriate section
000000                00079                 MOVLB   HIGH Ctemp
Error[113]  : Symbol not previously defined (Ctemp)
Error[152]  : Executable code and data must be defined in an appropriate section
000000                00080                 MOVF    Ctemp,W
Error[113]  : Symbol not previously defined (CH50MHZPOS)
Error[152]  : Executable code and data must be defined in an appropriate section
000000                00081                 ADDLW   CH50MHZPOS
Warning[207]: Found label after column 1. (CALLFW)
Error[122]  : Illegal opcode (LCDsendCMD)
000000                00082                 CALLFW  LCDsendCMD
Error[113]  : Symbol not previously defined (Buffer)
Error[152]  : Executable code and data must be defined in an appropriate section
000000                00083                 MOVF    Buffer+3,W
Warning[207]: Found label after column 1. (CALLFW)
Error[122]  : Illegal opcode (LCDsendData)
000000                00084                 CALLFW  LCDsendData
Error[113]  : Symbol not previously defined (Buffer)
Error[152]  : Executable code and data must be defined in an appropriate section
000000                00085                 MOVF    Buffer+4,W
Warning[207]: Found label after column 1. (CALLFW)
Error[122]  : Illegal opcode (LCDsendData)
000000                00086                 CALLFW  LCDsendData
Error[152]  : Executable code and data must be defined in an appropriate section
000000                00087                 RETURN
Error[150]  : Labels must be defined in a code or data section when making an object file
000000                00088 DF72MHz
                      00089         ; Test if its 72MHz
Error[113]  : Symbol not previously defined (Fband)
Error[152]  : Executable code and data must be defined in an appropriate section
000000                00090                 MOVLB   HIGH Fband
Error[113]  : Symbol not previously defined (Fband)
Error[152]  : Executable code and data must be defined in an appropriate section
000000                00091                 BTFSS   Fband,0
Error[152]  : Executable code and data must be defined in an appropriate section
000000                00092                 RETURN
Error[113]  : Symbol not previously defined (Fband)
Error[152]  : Executable code and data must be defined in an appropriate section
000000                00093                 BTFSS   Fband,1
Error[152]  : Executable code and data must be defined in an appropriate section
000000                00094                 RETURN
                      00095         ; Here if its 72MHz     
Error[113]  : Symbol not previously defined (Ctemp)
Error[152]  : Executable code and data must be defined in an appropriate section
000000                00096                 MOVLB   HIGH Ctemp
Error[113]  : Symbol not previously defined (Ctemp)
Error[152]  : Executable code and data must be defined in an appropriate section
000000                00097                 MOVF    Ctemp,W
MPASM  5.37                            UI.ASM   8-24-2010  6:19:47         PAGE 167


LOC  OBJECT CODE     LINE SOURCE TEXT
  VALUE

Warning[207]: Found label after column 1. (CALLFW)
Error[122]  : Illegal opcode (LCDsendCMD)
000000                00098                 CALLFW  LCDsendCMD
Warning[207]: Found label after column 1. (PrintMess)
Error[122]  : Illegal opcode (MES22)
000000                00099                 PrintMess MES22
Error[113]  : Symbol not previously defined (Ctemp)
Error[152]  : Executable code and data must be defined in an appropriate section
000000                00100                 MOVLB   HIGH Ctemp
Error[113]  : Symbol not previously defined (Ctemp)
Error[152]  : Executable code and data must be defined in an appropriate section
000000                00101                 MOVF    Ctemp,W
Error[113]  : Symbol not previously defined (CH72POS)
Error[152]  : Executable code and data must be defined in an appropriate section
000000                00102                 ADDLW   CH72POS
Warning[207]: Found label after column 1. (CALLFW)
Error[122]  : Illegal opcode (LCDsendCMD)
000000                00103                 CALLFW  LCDsendCMD
Error[113]  : Symbol not previously defined (SelFreq)
Error[152]  : Executable code and data must be defined in an appropriate section
000000                00104                 MOVLB   HIGH SelFreq
Error[113]  : Symbol not previously defined (SelFreq)
Error[152]  : Executable code and data must be defined in an appropriate section
000000                00105                 MOVF    SelFreq,W
Error[113]  : Symbol not previously defined (FCN)
Error[152]  : Executable code and data must be defined in an appropriate section
000000                00106                 MOVLB   HIGH FCN
Error[113]  : Symbol not previously defined (FCN)
Error[113]  : Symbol not previously defined (WREG)
Error[152]  : Executable code and data must be defined in an appropriate section
000000                00107                 ADDWF   FCN,WREG
Error[113]  : Symbol not previously defined (CEXreg)
Error[152]  : Executable code and data must be defined in an appropriate section
000000                00108                 MOVLB   HIGH CEXreg
Error[113]  : Symbol not previously defined (CEXreg)
Error[152]  : Executable code and data must be defined in an appropriate section
000000                00109                 MOVWF   CEXreg
Error[113]  : Symbol not previously defined (CEXreg)
Error[152]  : Executable code and data must be defined in an appropriate section
000000                00110                 CLRF    CEXreg+1 
Error[113]  : Symbol not previously defined (CEXreg)
Error[152]  : Executable code and data must be defined in an appropriate section
000000                00111                 CLRF    CEXreg+2
Error[113]  : Symbol not previously defined (CEXreg)
Error[152]  : Executable code and data must be defined in an appropriate section
000000                00112                 CLRF    CEXreg+3
Warning[207]: Found label after column 1. (CALLF)
Error[122]  : Illegal opcode (LCDint2)
000000                00113                 CALLF   LCDint2
                      00114                 ; Now do the frequency part...
Error[113]  : Symbol not previously defined (SelFreq)
Error[152]  : Executable code and data must be defined in an appropriate section
000000                00115                 MOVLB   HIGH SelFreq
MPASM  5.37                            UI.ASM   8-24-2010  6:19:47         PAGE 168


LOC  OBJECT CODE     LINE SOURCE TEXT
  VALUE

Error[113]  : Symbol not previously defined (SelFreq)
Error[152]  : Executable code and data must be defined in an appropriate section
000000                00116                 MOVF    SelFreq,W
Error[113]  : Symbol not previously defined (C)
Error[113]  : Symbol not previously defined (ALUSTA)
Error[152]  : Executable code and data must be defined in an appropriate section
000000                00117                 BCF     ALUSTA,C
Error[113]  : Symbol not previously defined (WREG)
Error[152]  : Executable code and data must be defined in an appropriate section
000000                00118                 RLCF    WREG
Error[152]  : Executable code and data must be defined in an appropriate section
000000                00119                 ADDLW   D'01'
                      00120                 ; WREG now holds the variable part of the freq,
                      00121                 ; convert it to a string
Error[113]  : Symbol not previously defined (CEXreg)
Error[152]  : Executable code and data must be defined in an appropriate section
000000                00122                 MOVLB   HIGH CEXreg
Error[113]  : Symbol not previously defined (CEXreg)
Error[152]  : Executable code and data must be defined in an appropriate section
000000                00123                 MOVWF   CEXreg
Error[113]  : Symbol not previously defined (CEXreg)
Error[152]  : Executable code and data must be defined in an appropriate section
000000                00124                 CLRF    CEXreg+1
Error[113]  : Symbol not previously defined (CEXreg)
Error[152]  : Executable code and data must be defined in an appropriate section
000000                00125                 CLRF    CEXreg+2
Error[113]  : Symbol not previously defined (CEXreg)
Error[152]  : Executable code and data must be defined in an appropriate section
000000                00126                 CLRF    CEXreg+3
Error[113]  : Symbol not previously defined (Int2Str)
Error[152]  : Executable code and data must be defined in an appropriate section
Error[152]  : Executable code and data must be defined in an appropriate section
000000                00127                 CALL    Int2Str
                      00128                 ; Now Print the number...
Error[113]  : Symbol not previously defined (Ctemp)
Error[152]  : Executable code and data must be defined in an appropriate section
000000                00129                 MOVLB   HIGH Ctemp
Error[113]  : Symbol not previously defined (Ctemp)
Error[152]  : Executable code and data must be defined in an appropriate section
000000                00130                 MOVF    Ctemp,W
Error[113]  : Symbol not previously defined (CH72MHZPOS)
Error[152]  : Executable code and data must be defined in an appropriate section
000000                00131                 ADDLW   CH72MHZPOS
Warning[207]: Found label after column 1. (CALLFW)
Error[122]  : Illegal opcode (LCDsendCMD)
000000                00132                 CALLFW  LCDsendCMD
Error[113]  : Symbol not previously defined (Buffer)
Error[152]  : Executable code and data must be defined in an appropriate section
000000                00133                 MOVF    Buffer+3,W
Warning[207]: Found label after column 1. (CALLFW)
Error[122]  : Illegal opcode (LCDsendData)
000000                00134                 CALLFW  LCDsendData
Error[113]  : Symbol not previously defined (Buffer)
MPASM  5.37                            UI.ASM   8-24-2010  6:19:47         PAGE 169


LOC  OBJECT CODE     LINE SOURCE TEXT
  VALUE

Error[152]  : Executable code and data must be defined in an appropriate section
000000                00135                 MOVF    Buffer+4,W
Warning[207]: Found label after column 1. (CALLFW)
Error[122]  : Illegal opcode (LCDsendData)
000000                00136                 CALLFW  LCDsendData
Error[152]  : Executable code and data must be defined in an appropriate section
000000                00137                 RETURN
                      00138 
                      00139 ;
                      00140 ; This function allows the pilot to select the frequency using the
                      00141 ; elevator stick...
                      00142 ;
Error[150]  : Labels must be defined in a code or data section when making an object file
000000                00143 SelectFrequency
                      00144         ; Display current selection
Error[150]  : Labels must be defined in a code or data section when making an object file
000000                00145 SF4
Error[113]  : Symbol not previously defined (ModelChannel)
Error[152]  : Executable code and data must be defined in an appropriate section
000000                00146                 MOVLB   HIGH ModelChannel
Error[152]  : Executable code and data must be defined in an appropriate section
000000                00147                 MOVLW   0FF
Error[113]  : Symbol not previously defined (ModelChannel)
Error[152]  : Executable code and data must be defined in an appropriate section
000000                00148                 CPFSEQ  ModelChannel
Error[151]  : Operand contains unresolvable labels or is too complex
Error[152]  : Executable code and data must be defined in an appropriate section
Error[152]  : Executable code and data must be defined in an appropriate section
000000                00149                 GOTO    SF0
Warning[207]: Found label after column 1. (CALLFL)
Error[122]  : Illegal opcode (LCDsendCMD)
000000                00150                 CALLFL  LCDsendCMD,LINE2
Warning[207]: Found label after column 1. (PrintMess)
Error[122]  : Illegal opcode (MES6)
000000                00151                 PrintMess MES6
Warning[207]: Found label after column 1. (CALLFL)
Error[122]  : Illegal opcode (Delay1mS)
000000                00152                 CALLFL  Delay1mS,D'250'
Error[151]  : Operand contains unresolvable labels or is too complex
Error[152]  : Executable code and data must be defined in an appropriate section
Error[152]  : Executable code and data must be defined in an appropriate section
000000                00153                 GOTO    SF1
                      00154         ; Display the current freq...
Error[150]  : Labels must be defined in a code or data section when making an object file
000000                00155 SF0
Error[113]  : Symbol not previously defined (ModelChannel)
Error[152]  : Executable code and data must be defined in an appropriate section
000000                00156                 MOVLB   HIGH ModelChannel
Error[113]  : Symbol not previously defined (ModelChannel)
Error[152]  : Executable code and data must be defined in an appropriate section
000000                00157                 MOVF    ModelChannel,W
Error[113]  : Symbol not previously defined (SelFreq)
Error[152]  : Executable code and data must be defined in an appropriate section
MPASM  5.37                            UI.ASM   8-24-2010  6:19:47         PAGE 170


LOC  OBJECT CODE     LINE SOURCE TEXT
  VALUE

000000                00158                 MOVLB   HIGH SelFreq
Error[113]  : Symbol not previously defined (SelFreq)
Error[152]  : Executable code and data must be defined in an appropriate section
000000                00159                 MOVWF   SelFreq
Error[113]  : Symbol not previously defined (LINE2)
Error[152]  : Executable code and data must be defined in an appropriate section
000000                00160                 MOVLW   LINE2
Error[113]  : Symbol not previously defined (Ctemp)
Error[152]  : Executable code and data must be defined in an appropriate section
000000                00161                 MOVLB   HIGH Ctemp
Error[113]  : Symbol not previously defined (Ctemp)
Error[152]  : Executable code and data must be defined in an appropriate section
000000                00162                 MOVWF   Ctemp
Error[151]  : Operand contains unresolvable labels or is too complex
Error[152]  : Executable code and data must be defined in an appropriate section
Error[152]  : Executable code and data must be defined in an appropriate section
000000                00163                 CALL    DisplayFrequency
Warning[207]: Found label after column 1. (CALLFL)
Error[122]  : Illegal opcode (Delay1mS)
000000                00164                 CALLFL  Delay1mS,D'250'
                      00165         ; Wait for confirm or advance...
                      00166         ; Elevator = change...
                      00167         ; Option = accept
Error[150]  : Labels must be defined in a code or data section when making an object file
000000                00168 SF1
                      00169         ; Test for change
Error[151]  : Operand contains unresolvable labels or is too complex
Error[152]  : Executable code and data must be defined in an appropriate section
Error[152]  : Executable code and data must be defined in an appropriate section
000000                00170                 CALL    Elevator
Error[113]  : Symbol not previously defined (Z)
Error[113]  : Symbol not previously defined (ALUSTA)
Error[152]  : Executable code and data must be defined in an appropriate section
000000                00171                 BTFSS   ALUSTA,Z
Error[151]  : Operand contains unresolvable labels or is too complex
Error[152]  : Executable code and data must be defined in an appropriate section
Error[152]  : Executable code and data must be defined in an appropriate section
000000                00172                 GOTO    SF2
                      00173                 ; Here to advance to next selection
Error[113]  : Symbol not previously defined (NUMFREQ)
Error[152]  : Executable code and data must be defined in an appropriate section
000000                00174                 MOVLB   HIGH NUMFREQ
Error[113]  : Symbol not previously defined (NUMFREQ)
Error[152]  : Executable code and data must be defined in an appropriate section
000000                00175                 MOVF    NUMFREQ,W
Error[113]  : Symbol not previously defined (ModelChannel)
Error[152]  : Executable code and data must be defined in an appropriate section
000000                00176                 MOVLB   HIGH ModelChannel
Error[113]  : Symbol not previously defined (ModelChannel)
Error[152]  : Executable code and data must be defined in an appropriate section
000000                00177                 INCF    ModelChannel
Error[113]  : Symbol not previously defined (ModelChannel)
Error[152]  : Executable code and data must be defined in an appropriate section
MPASM  5.37                            UI.ASM   8-24-2010  6:19:47         PAGE 171


LOC  OBJECT CODE     LINE SOURCE TEXT
  VALUE

000000                00178                 CPFSEQ  ModelChannel
Error[151]  : Operand contains unresolvable labels or is too complex
Error[152]  : Executable code and data must be defined in an appropriate section
Error[152]  : Executable code and data must be defined in an appropriate section
000000                00179                 GOTO    SF4
Error[152]  : Executable code and data must be defined in an appropriate section
000000                00180                 MOVLW   0FF             ; 0FF to enable OFF option
Error[113]  : Symbol not previously defined (ModelChannel)
Error[152]  : Executable code and data must be defined in an appropriate section
000000                00181                 MOVWF   ModelChannel
Error[151]  : Operand contains unresolvable labels or is too complex
Error[152]  : Executable code and data must be defined in an appropriate section
Error[152]  : Executable code and data must be defined in an appropriate section
000000                00182                 GOTO    SF4
Error[150]  : Labels must be defined in a code or data section when making an object file
000000                00183 SF2
Error[113]  : Symbol not previously defined (C)
Error[113]  : Symbol not previously defined (ALUSTA)
Error[152]  : Executable code and data must be defined in an appropriate section
000000                00184                 BTFSS   ALUSTA,C
Error[151]  : Operand contains unresolvable labels or is too complex
Error[152]  : Executable code and data must be defined in an appropriate section
Error[152]  : Executable code and data must be defined in an appropriate section
000000                00185                 GOTO    SF3
                      00186                 ; Here to return to last selection
Error[113]  : Symbol not previously defined (ModelChannel)
Error[152]  : Executable code and data must be defined in an appropriate section
000000                00187                 MOVLB   HIGH ModelChannel
Error[113]  : Symbol not previously defined (ModelChannel)
Error[152]  : Executable code and data must be defined in an appropriate section
000000                00188                 DECF    ModelChannel
Error[152]  : Executable code and data must be defined in an appropriate section
000000                00189                 MOVLW   0FE             ; 0FF to enable OFF option
Error[113]  : Symbol not previously defined (ModelChannel)
Error[152]  : Executable code and data must be defined in an appropriate section
000000                00190                 CPFSEQ  ModelChannel
Error[151]  : Operand contains unresolvable labels or is too complex
Error[152]  : Executable code and data must be defined in an appropriate section
Error[152]  : Executable code and data must be defined in an appropriate section
000000                00191                 GOTO    SF4
Error[113]  : Symbol not previously defined (NUMFREQ)
Error[152]  : Executable code and data must be defined in an appropriate section
000000                00192                 MOVLB   HIGH NUMFREQ
Error[113]  : Symbol not previously defined (NUMFREQ)
Error[152]  : Executable code and data must be defined in an appropriate section
000000                00193                 MOVF    NUMFREQ,W
Error[113]  : Symbol not previously defined (WREG)
Error[152]  : Executable code and data must be defined in an appropriate section
000000                00194                 DECF    WREG
Error[113]  : Symbol not previously defined (ModelChannel)
Error[152]  : Executable code and data must be defined in an appropriate section
000000                00195         MOVLB   HIGH ModelChannel
Error[113]  : Symbol not previously defined (ModelChannel)
MPASM  5.37                            UI.ASM   8-24-2010  6:19:47         PAGE 172


LOC  OBJECT CODE     LINE SOURCE TEXT
  VALUE

Error[152]  : Executable code and data must be defined in an appropriate section
000000                00196                 MOVWF   ModelChannel
Error[151]  : Operand contains unresolvable labels or is too complex
Error[152]  : Executable code and data must be defined in an appropriate section
Error[152]  : Executable code and data must be defined in an appropriate section
000000                00197                 GOTO    SF4
Error[150]  : Labels must be defined in a code or data section when making an object file
000000                00198 SF3
                      00199                 ; Test if the option button has been pressed
Error[113]  : Symbol not previously defined (Option)
Error[152]  : Executable code and data must be defined in an appropriate section
Error[152]  : Executable code and data must be defined in an appropriate section
000000                00200                 CALL    Option
Error[113]  : Symbol not previously defined (C)
Error[113]  : Symbol not previously defined (ALUSTA)
Error[152]  : Executable code and data must be defined in an appropriate section
000000                00201                 BTFSS   ALUSTA,C
Error[151]  : Operand contains unresolvable labels or is too complex
Error[152]  : Executable code and data must be defined in an appropriate section
Error[152]  : Executable code and data must be defined in an appropriate section
000000                00202                 GOTO    SF1
                      00203                 ; Save the new frequency to Sprom
Error[113]  : Symbol not previously defined (Aircraft)
Error[152]  : Executable code and data must be defined in an appropriate section
Error[113]  : Symbol not previously defined (WREG)
Error[152]  : Executable code and data must be defined in an appropriate section
000000                00204                 MOVFF   Aircraft,WREG   ; Load aircraft number
Error[113]  : Symbol not previously defined (SaveAircraft)
Error[152]  : Executable code and data must be defined in an appropriate section
Error[152]  : Executable code and data must be defined in an appropriate section
000000                00205                 CALL    SaveAircraft
Error[152]  : Executable code and data must be defined in an appropriate section
000000                00206                 RETURN
                      01568         Include <Advanced.asm>
                      00001 ;
                      00002 ; This file contins the processing routine specific to the Advanced menu selections.
                      00003 ;
                      00004 
                      00005 ; convert Rreg50 to frequency in KHz units.
Error[150]  : Labels must be defined in a code or data section when making an object file
000000                00006 PreRef
                      00007    ; Save registers
Warning[207]: Found label after column 1. (MOVE)
Error[122]  : Illegal opcode (AXreg)
                      00008         MOVE    AXreg,AXregS
Warning[207]: Found label after column 1. (MOVE)
Error[122]  : Illegal opcode (BXreg)
                      00009         MOVE    BXreg,BXregS
                      00010    ; Save the current value
Warning[207]: Found label after column 1. (MOVE24)
Error[122]  : Illegal opcode (Rreg50)
                      00011         MOVE24  Rreg50,Rreg53
                      00012    ; Convert the value into the reference freq in KHz
MPASM  5.37                            UI.ASM   8-24-2010  6:19:47         PAGE 173


LOC  OBJECT CODE     LINE SOURCE TEXT
  VALUE

Warning[207]: Found label after column 1. (MOVLR)
Error[122]  : Illegal opcode (HIGH)
                      00013         MOVLR   HIGH Rreg50
Error[113]  : Symbol not previously defined (Rreg50)
Error[152]  : Executable code and data must be defined in an appropriate section
000000                00014         RRCF    Rreg50+2
Error[113]  : Symbol not previously defined (Rreg50)
Error[152]  : Executable code and data must be defined in an appropriate section
000000                00015         RRCF    Rreg50+1
Error[113]  : Symbol not previously defined (Rreg50)
Error[152]  : Executable code and data must be defined in an appropriate section
000000                00016         RRCF    Rreg50
Error[113]  : Symbol not previously defined (Rreg50)
Error[152]  : Executable code and data must be defined in an appropriate section
000000                00017         RRCF    Rreg50+2
Error[113]  : Symbol not previously defined (Rreg50)
Error[152]  : Executable code and data must be defined in an appropriate section
000000                00018         RRCF    Rreg50+1
Error[113]  : Symbol not previously defined (Rreg50)
Error[152]  : Executable code and data must be defined in an appropriate section
000000                00019         RRCF    Rreg50
Error[113]  : Symbol not previously defined (Rreg50)
Error[152]  : Executable code and data must be defined in an appropriate section
000000                00020         CLRF    Rreg50+2
Error[152]  : Executable code and data must be defined in an appropriate section
000000                00021         MOVLW   0x3F
Error[113]  : Symbol not previously defined (Rreg50)
Error[152]  : Executable code and data must be defined in an appropriate section
000000                00022         ANDWF   Rreg50+1,F
                      00023    ; The ref for the 50MHz band is assumed to be 20KHz so
                      00024    ; now multiply by 20 to get in KHz units
Warning[207]: Found label after column 1. (MOVE)
Error[122]  : Illegal opcode (Rreg50)
                      00025         MOVE    Rreg50,AXreg
Warning[207]: Found label after column 1. (MOVEC)
Error[122]  : Illegal opcode (D)
                      00026         MOVEC   D'20',BXreg
Error[113]  : Symbol not previously defined (Mult1616)
Error[152]  : Executable code and data must be defined in an appropriate section
Error[152]  : Executable code and data must be defined in an appropriate section
000000                00027         CALL    Mult1616
Warning[207]: Found label after column 1. (MOVE)
Error[122]  : Illegal opcode (CEXreg)
000000                00028         MOVE    CEXreg,Rreg50
                      00029    ; Now we are ready for the pilot to select the ref freq!
                      00030    ; Restore registers
Warning[207]: Found label after column 1. (MOVE)
Error[122]  : Illegal opcode (AXregS)
                      00031         MOVE    AXregS,AXreg
Warning[207]: Found label after column 1. (MOVE)
Error[122]  : Illegal opcode (BXregS)
                      00032         MOVE    BXregS,BXreg
Error[152]  : Executable code and data must be defined in an appropriate section
MPASM  5.37                            UI.ASM   8-24-2010  6:19:47         PAGE 174


LOC  OBJECT CODE     LINE SOURCE TEXT
  VALUE

000000                00033         RETURN
                      00034         
                      00035 ; convert the frequency back to Rreg50 value
Error[150]  : Labels must be defined in a code or data section when making an object file
000000                00036 PostRef
                      00037    ; Save registers
Warning[207]: Found label after column 1. (MOVE)
Error[122]  : Illegal opcode (AXreg)
                      00038         MOVE    AXreg,AXregS
Warning[207]: Found label after column 1. (MOVE)
Error[122]  : Illegal opcode (BXreg)
                      00039         MOVE    BXreg,BXregS
                      00040    ; first divide by 5 to get Rreg units
Warning[207]: Found label after column 1. (MOVE)
Error[122]  : Illegal opcode (Rreg50)
                      00041         MOVE    Rreg50,CEXreg
Warning[207]: Found label after column 1. (MOVLR)
Error[122]  : Illegal opcode (HIGH)
                      00042         MOVLR   HIGH CEXreg
Error[113]  : Symbol not previously defined (CEXreg)
Error[152]  : Executable code and data must be defined in an appropriate section
000000                00043         CLRF    CEXreg+2
Warning[207]: Found label after column 1. (MOVEC)
Error[122]  : Illegal opcode (D)
000000                00044         MOVEC   D'5',DEXreg
Error[113]  : Symbol not previously defined (Divide2416)
Error[152]  : Executable code and data must be defined in an appropriate section
Error[152]  : Executable code and data must be defined in an appropriate section
000000                00045         CALL    Divide2416
                      00046    ; Now clear all but the 14 counter bits in all three Rreg sets, 50, 53, and 72MHz
Warning[207]: Found label after column 1. (MOVLR)
Error[122]  : Illegal opcode (HIGH)
                      00047         MOVLR   HIGH Rreg53
Error[152]  : Executable code and data must be defined in an appropriate section
000000                00048         MOVLW   0x03
Error[113]  : Symbol not previously defined (Rreg53)
Error[152]  : Executable code and data must be defined in an appropriate section
000000                00049         ANDWF   Rreg53,F
Error[152]  : Executable code and data must be defined in an appropriate section
000000                00050         MOVLW   0x00
Error[113]  : Symbol not previously defined (Rreg53)
Error[152]  : Executable code and data must be defined in an appropriate section
000000                00051         ANDWF   Rreg53+1,F
Warning[207]: Found label after column 1. (MOVE24)
Error[122]  : Illegal opcode (Rreg53)
000000                00052         MOVE24  Rreg53,Rreg50
Warning[207]: Found label after column 1. (MOVE24)
Error[122]  : Illegal opcode (Rreg53)
000000                00053         MOVE24  Rreg53,Rreg72
                      00054    ; Move the counter data into the regs
Error[113]  : Symbol not previously defined (CEXreg)
Error[152]  : Executable code and data must be defined in an appropriate section
Error[113]  : Symbol not previously defined (WREG)
MPASM  5.37                            UI.ASM   8-24-2010  6:19:47         PAGE 175


LOC  OBJECT CODE     LINE SOURCE TEXT
  VALUE

Error[152]  : Executable code and data must be defined in an appropriate section
000000                00055         MOVFF   CEXreg,WREG
Error[113]  : Symbol not previously defined (Rreg50)
Error[152]  : Executable code and data must be defined in an appropriate section
000000                00056         IORWF   Rreg50
Error[113]  : Symbol not previously defined (Rreg53)
Error[152]  : Executable code and data must be defined in an appropriate section
000000                00057         IORWF   Rreg53
Error[113]  : Symbol not previously defined (CEXreg)
Error[152]  : Executable code and data must be defined in an appropriate section
Error[113]  : Symbol not previously defined (WREG)
Error[152]  : Executable code and data must be defined in an appropriate section
000000                00058         MOVFF   CEXreg+1,WREG
Error[113]  : Symbol not previously defined (Rreg50)
Error[152]  : Executable code and data must be defined in an appropriate section
000000                00059         IORWF   Rreg50+1
Error[113]  : Symbol not previously defined (Rreg53)
Error[152]  : Executable code and data must be defined in an appropriate section
000000                00060         IORWF   Rreg53+1
                      00061    ; Multiply count by two and then apply to the 72MHz reg
Error[113]  : Symbol not previously defined (C)
Error[113]  : Symbol not previously defined (ALUSTA)
Error[152]  : Executable code and data must be defined in an appropriate section
000000                00062         BCF     ALUSTA,C
Warning[207]: Found label after column 1. (MOVLR)
Error[122]  : Illegal opcode (HIGH)
000000                00063         MOVLR   HIGH CEXreg
Error[113]  : Symbol not previously defined (CEXreg)
Error[152]  : Executable code and data must be defined in an appropriate section
000000                00064         RLCF    CEXreg
Error[113]  : Symbol not previously defined (CEXreg)
Error[152]  : Executable code and data must be defined in an appropriate section
000000                00065         RLCF    CEXreg+1
Warning[207]: Found label after column 1. (MOVLR)
Error[122]  : Illegal opcode (HIGH)
000000                00066         MOVLR   HIGH Rreg72
Error[113]  : Symbol not previously defined (CEXreg)
Error[152]  : Executable code and data must be defined in an appropriate section
Error[113]  : Symbol not previously defined (WREG)
Error[152]  : Executable code and data must be defined in an appropriate section
000000                00067         MOVFF   CEXreg,WREG
Error[113]  : Symbol not previously defined (Rreg72)
Error[152]  : Executable code and data must be defined in an appropriate section
000000                00068         IORWF   Rreg72
Error[113]  : Symbol not previously defined (CEXreg)
Error[152]  : Executable code and data must be defined in an appropriate section
Error[113]  : Symbol not previously defined (WREG)
Error[152]  : Executable code and data must be defined in an appropriate section
000000                00069         MOVFF   CEXreg+1,WREG
Error[113]  : Symbol not previously defined (Rreg72)
Error[152]  : Executable code and data must be defined in an appropriate section
000000                00070         IORWF   Rreg72+1
                      00071    ; Done       
MPASM  5.37                            UI.ASM   8-24-2010  6:19:47         PAGE 176


LOC  OBJECT CODE     LINE SOURCE TEXT
  VALUE

                      00072    ; Restore registers
Warning[207]: Found label after column 1. (MOVE)
Error[122]  : Illegal opcode (AXregS)
                      00073         MOVE    AXregS,AXreg
Warning[207]: Found label after column 1. (MOVE)
Error[122]  : Illegal opcode (BXregS)
                      00074         MOVE    BXregS,BXreg
Error[152]  : Executable code and data must be defined in an appropriate section
000000                00075         RETURN
                      00076         
                      00077         
Error[129]  : Expected (END)
MPASM  5.37                            UI.ASM   8-24-2010  6:19:47         PAGE 177


SYMBOL TABLE
  LABEL                             VALUE 

ADJ1                              00000000
ADJ2                              00000000
ADJ3                              00000000
ADJbyte                           00000000
ADJbyte1                          00000000
ADJbyte2                          00000000
ADJbyte3                          00000000
ADJbyteloop                       00000000
ADJint1                           00000000
ADJint2                           00000000
ADJint3                           00000000
ADJinteger                        00000000
ADJpercent                        00000000
ADJuS                             00000000
ADJuSa                            00000000
ADJuSz                            00000000
ADJus1                            00000000
ADJus2                            00000000
ADJus3                            00000000
ADJus3a                           00000000
ADJus3b                           00000000
ADJvolt                           00000000
AERPost                           00000000
AERPre                            00000000
ATreset                           00000000
Accept                            00000000
Accept1                           00000000
Accept2                           00000000
AcceptLoop                        00000000
AdvanceRecord                     00000000
AilPost                           00000000
AilPre                            00000000
Aileron                           00000000
Aileron1                          00000000
Aileron2                          00000000
AircraftName                      00000000
ApplySymSet                       00000000
AutoTrim2Zero                     00000000
CALexit                           00000000
CAN0                              00000000
CAN1                              00000000
CAN2                              00000000
CAN3                              00000000
CAN4                              00000000
CANa                              00000000
CH567Post                         00000000
CH567Pre                          00000000
CH5Post                           00000000
CH5Pre                            00000000
CH6Post                           00000000
CH6Pre                            00000000
CH7Post                           00000000
CH7Pre                            00000000
MPASM  5.37                            UI.ASM   8-24-2010  6:19:47         PAGE 178


SYMBOL TABLE
  LABEL                             VALUE 

CH8Post                           00000000
CH8Pre                            00000000
CMA1                              00000000
CMA2                              00000000
CUI2                              00000000
CUI2a                             00000000
CUI3                              00000000
CUI4                              00000000
CUI4a                             00000000
CUI5                              00000000
CalAdvanced                       00000000
CalAircraftName                   00000000
CalHelicopter                     00000000
CalMixers                         00000000
CalModeProcess                    00000000
CalOptions                        00000000
CalSaveAndExit                    00000000
CalSaveExit                       00000000
CalSelectAircraft                 00000000
CalSelectFrequency                00000000
CalServos                         00000000
CalSnap                           00000000
CalSwitch                         00000000
CalSystemSetup                    00000000
CalTimer                          00000000
CalUI                             00000000
CalVolt1                          00000000
CalVolt2                          00000000
CalVoltMeter                      00000000
Calibration                       00000000
CallBXreg                         00000000
Convert2Gains                     00000000
Convert2GainsNC                   00000000
Convert2Times                     00000000
Convert2TimesNC                   00000000
CopyAFT                           00000000
CopyAFTgo                         00000000
DF0                               00000000
DF50MHz                           00000000
DF72MHz                           00000000
DisplayCalibration                00000000
DisplayFrequency                  00000000
ElePost                           00000000
ElePre                            00000000
Elevator                          00000000
Elevator1                         00000000
Elevator2                         00000000
FMSenable                         00000000
FMSenable1                        00000000
FindSelection                     00000000
FmtFlsh                           00000000
Input                             00000000
Input1                            00000000
MPASM  5.37                            UI.ASM   8-24-2010  6:19:47         PAGE 179


SYMBOL TABLE
  LABEL                             VALUE 

Input2                            00000000
Input3                            00000000
Input4                            00000000
Input5                            00000000
Input6                            00000000
Input7                            00000000
Input8                            00000000
Input8a                           00000000
Input9                            00000000
InputB                            00000000
InputC                            00000000
InputD                            00000000
JScChan                           00000000
JSncChan                          00000000
JStrimsChan                       00000000
Limit16                           00000000
Limit16a                          00000000
Limit16b                          00000000
Limit8                            00000000
NextRecord                        00000000
NoAT                              00000000
NoDriveCh                         00000000
NotRTDWN                          00000000
PSO1                              00000000
PSO2                              00000000
PSO3                              00000000
PostA2R                           00000000
PostBand                          00000000
PostCH5                           00000000
PostCH8                           00000000
PostChan                          00000000
PostMix                           00000000
PostR2A                           00000000
PostR2E                           00000000
PostRef                           00000000
PostSetOrder                      00000000
PreA2R                            00000000
PreCH5                            00000000
PreCH8                            00000000
PreChan                           00000000
PreMix                            00000000
PreR2A                            00000000
PreR2E                            00000000
PreRef                            00000000
Preset                            00000000
Preset1                           00000000
R1000_1                           00000000
R256_1                            00000000
RXvoltSet                         00000000
ResetBatTimer                     00000000
Round1000                         00000000
Round256                          00000000
RudPost                           00000000
MPASM  5.37                            UI.ASM   8-24-2010  6:19:47         PAGE 180


SYMBOL TABLE
  LABEL                             VALUE 

RudPre                            00000000
SA1                               00000000
SA2                               00000000
SA3                               00000000
SA4                               00000000
SCP_RevDone                       00000000
SF0                               00000000
SF1                               00000000
SF2                               00000000
SF3                               00000000
SF4                               00000000
SNCP_RevDone                      00000000
STreset                           00000000
SelFun1                           00000000
SelFun2                           00000000
SelFun3                           00000000
SelFun4                           00000000
SelFun4a                          00000000
SelFun5                           00000000
SelFun5a                          00000000
SelFun6                           00000000
SelFun7                           00000000
SelectAircraft                    00000000
SelectChannel                     00000000
SelectChannel1                    00000000
SelectChannel2                    00000000
SelectChannel3                    00000000
SelectChannel4                    00000000
SelectFrequency                   00000000
SelectionFunction                 00000000
SerLim                            00000000
SetAftRange                       00000000
SetDefault                        00000000
SetSUflag                         00000000
ShowDP                            00000000
ShowLine2                         00000000
SrevCPost                         00000000
SrevNCPost                        00000000
TP_RevDone                        00000000
TXvoltSet                         00000000
Table2Temp                        00000000
Temp2Table                        00000000
ThtPost                           00000000
ThtPre                            00000000
TrevPost                          00000000
TrimZero                          00000000
TrimZeroClear                     00000000
VerSel1                           00000000
VerSel2                           00000000
VerSel3                           00000000
VerSel4                           00000000
VerticalSelection                 00000000
YesNo                             00000000
MPASM  5.37                            UI.ASM   8-24-2010  6:19:47         PAGE 181


SYMBOL TABLE
  LABEL                             VALUE 

YesNo1                            00000000
YesNo2                            00000000
YesNoLoop                         00000000
__18F8722                         00000001

Errors   :  5328
Warnings :   408 reported,     0 suppressed
Messages :     0 reported,     0 suppressed

